
proyecto10LCDGrafico.elf:     file format elf32-avr

Sections:
Idx Name          Size      VMA       LMA       File off  Algn
  0 .data         0000000c  00800100  0000047e  000004f2  2**0
                  CONTENTS, ALLOC, LOAD, DATA
  1 .text         0000047e  00000000  00000000  00000074  2**1
                  CONTENTS, ALLOC, LOAD, READONLY, CODE

Disassembly of section .text:

00000000 <__vectors>:
   0:	0c 94 46 00 	jmp	0x8c	; 0x8c <__ctors_end>
   4:	0c 94 5d 00 	jmp	0xba	; 0xba <__bad_interrupt>
   8:	0c 94 5d 00 	jmp	0xba	; 0xba <__bad_interrupt>
   c:	0c 94 5d 00 	jmp	0xba	; 0xba <__bad_interrupt>
  10:	0c 94 5d 00 	jmp	0xba	; 0xba <__bad_interrupt>
  14:	0c 94 5d 00 	jmp	0xba	; 0xba <__bad_interrupt>
  18:	0c 94 5d 00 	jmp	0xba	; 0xba <__bad_interrupt>
  1c:	0c 94 5d 00 	jmp	0xba	; 0xba <__bad_interrupt>
  20:	0c 94 5d 00 	jmp	0xba	; 0xba <__bad_interrupt>
  24:	0c 94 5d 00 	jmp	0xba	; 0xba <__bad_interrupt>
  28:	0c 94 5d 00 	jmp	0xba	; 0xba <__bad_interrupt>
  2c:	0c 94 5d 00 	jmp	0xba	; 0xba <__bad_interrupt>
  30:	0c 94 5d 00 	jmp	0xba	; 0xba <__bad_interrupt>
  34:	0c 94 5d 00 	jmp	0xba	; 0xba <__bad_interrupt>
  38:	0c 94 5d 00 	jmp	0xba	; 0xba <__bad_interrupt>
  3c:	0c 94 5d 00 	jmp	0xba	; 0xba <__bad_interrupt>
  40:	0c 94 5d 00 	jmp	0xba	; 0xba <__bad_interrupt>
  44:	0c 94 5d 00 	jmp	0xba	; 0xba <__bad_interrupt>
  48:	0c 94 5d 00 	jmp	0xba	; 0xba <__bad_interrupt>
  4c:	0c 94 5d 00 	jmp	0xba	; 0xba <__bad_interrupt>
  50:	0c 94 5d 00 	jmp	0xba	; 0xba <__bad_interrupt>
  54:	0c 94 5d 00 	jmp	0xba	; 0xba <__bad_interrupt>
  58:	0c 94 5d 00 	jmp	0xba	; 0xba <__bad_interrupt>
  5c:	0c 94 5d 00 	jmp	0xba	; 0xba <__bad_interrupt>
  60:	0c 94 5d 00 	jmp	0xba	; 0xba <__bad_interrupt>
  64:	0c 94 5d 00 	jmp	0xba	; 0xba <__bad_interrupt>
  68:	0c 94 5d 00 	jmp	0xba	; 0xba <__bad_interrupt>
  6c:	0c 94 5d 00 	jmp	0xba	; 0xba <__bad_interrupt>
  70:	0c 94 5d 00 	jmp	0xba	; 0xba <__bad_interrupt>
  74:	0c 94 5d 00 	jmp	0xba	; 0xba <__bad_interrupt>
  78:	0c 94 5d 00 	jmp	0xba	; 0xba <__bad_interrupt>
  7c:	0c 94 5d 00 	jmp	0xba	; 0xba <__bad_interrupt>
  80:	0c 94 5d 00 	jmp	0xba	; 0xba <__bad_interrupt>
  84:	0c 94 5d 00 	jmp	0xba	; 0xba <__bad_interrupt>
  88:	0c 94 5d 00 	jmp	0xba	; 0xba <__bad_interrupt>

0000008c <__ctors_end>:
  8c:	11 24       	eor	r1, r1
  8e:	1f be       	out	0x3f, r1	; 63
  90:	cf ef       	ldi	r28, 0xFF	; 255
  92:	d0 e1       	ldi	r29, 0x10	; 16
  94:	de bf       	out	0x3e, r29	; 62
  96:	cd bf       	out	0x3d, r28	; 61

00000098 <__do_copy_data>:
  98:	11 e0       	ldi	r17, 0x01	; 1
  9a:	a0 e0       	ldi	r26, 0x00	; 0
  9c:	b1 e0       	ldi	r27, 0x01	; 1
  9e:	ee e7       	ldi	r30, 0x7E	; 126
  a0:	f4 e0       	ldi	r31, 0x04	; 4
  a2:	00 e0       	ldi	r16, 0x00	; 0
  a4:	0b bf       	out	0x3b, r16	; 59
  a6:	02 c0       	rjmp	.+4      	; 0xac <__do_copy_data+0x14>
  a8:	07 90       	elpm	r0, Z+
  aa:	0d 92       	st	X+, r0
  ac:	ac 30       	cpi	r26, 0x0C	; 12
  ae:	b1 07       	cpc	r27, r17
  b0:	d9 f7       	brne	.-10     	; 0xa8 <__do_copy_data+0x10>
  b2:	0e 94 5f 00 	call	0xbe	; 0xbe <main>
  b6:	0c 94 3d 02 	jmp	0x47a	; 0x47a <_exit>

000000ba <__bad_interrupt>:
  ba:	0c 94 00 00 	jmp	0	; 0x0 <__vectors>

000000be <main>:
  be:	0f 93       	push	r16
  c0:	1f 93       	push	r17
  c2:	0e 94 fb 01 	call	0x3f6	; 0x3f6 <GLCD_Initalize>
  c6:	0e 94 a1 01 	call	0x342	; 0x342 <GLCD_ClearText>
  ca:	0e 94 7b 01 	call	0x2f6	; 0x2f6 <GLCD_ClearGraphic>
  ce:	80 e0       	ldi	r24, 0x00	; 0
  d0:	60 e0       	ldi	r22, 0x00	; 0
  d2:	0e 94 ec 00 	call	0x1d8	; 0x1d8 <GLCD_TextGoTo>
  d6:	80 e0       	ldi	r24, 0x00	; 0
  d8:	91 e0       	ldi	r25, 0x01	; 1
  da:	0e 94 6e 01 	call	0x2dc	; 0x2dc <GLCD_WriteString>
  de:	00 e0       	ldi	r16, 0x00	; 0
  e0:	10 e0       	ldi	r17, 0x00	; 0
  e2:	80 2f       	mov	r24, r16
  e4:	61 2f       	mov	r22, r17
  e6:	41 e0       	ldi	r20, 0x01	; 1
  e8:	0e 94 ff 00 	call	0x1fe	; 0x1fe <GLCD_SetPixel>
  ec:	1f 5f       	subi	r17, 0xFF	; 255
  ee:	10 31       	cpi	r17, 0x10	; 16
  f0:	c1 f7       	brne	.-16     	; 0xe2 <main+0x24>
  f2:	0f 5f       	subi	r16, 0xFF	; 255
  f4:	00 38       	cpi	r16, 0x80	; 128
  f6:	a1 f7       	brne	.-24     	; 0xe0 <main+0x22>
  f8:	ff cf       	rjmp	.-2      	; 0xf8 <main+0x3a>

000000fa <delay>:
  fa:	df 93       	push	r29
  fc:	cf 93       	push	r28
  fe:	0f 92       	push	r0
 100:	cd b7       	in	r28, 0x3d	; 61
 102:	de b7       	in	r29, 0x3e	; 62
 104:	19 82       	std	Y+1, r1	; 0x01
 106:	04 c0       	rjmp	.+8      	; 0x110 <delay+0x16>
 108:	00 00       	nop
 10a:	89 81       	ldd	r24, Y+1	; 0x01
 10c:	8f 5f       	subi	r24, 0xFF	; 255
 10e:	89 83       	std	Y+1, r24	; 0x01
 110:	89 81       	ldd	r24, Y+1	; 0x01
 112:	88 30       	cpi	r24, 0x08	; 8
 114:	c8 f3       	brcs	.-14     	; 0x108 <delay+0xe>
 116:	0f 90       	pop	r0
 118:	cf 91       	pop	r28
 11a:	df 91       	pop	r29
 11c:	08 95       	ret

0000011e <GLCD_InitalizeInterface>:
 11e:	8f ef       	ldi	r24, 0xFF	; 255
 120:	84 bb       	out	0x14, r24	; 20
 122:	87 e7       	ldi	r24, 0x77	; 119
 124:	8a bb       	out	0x1a, r24	; 26
 126:	8b b3       	in	r24, 0x1b	; 27
 128:	87 67       	ori	r24, 0x77	; 119
 12a:	8b bb       	out	0x1b, r24	; 27
 12c:	08 95       	ret

0000012e <GLCD_ChceckStatus>:
 12e:	14 ba       	out	0x14, r1	; 20
 130:	8b b3       	in	r24, 0x1b	; 27
 132:	8f 7c       	andi	r24, 0xCF	; 207
 134:	8b bb       	out	0x1b, r24	; 27
 136:	0e 94 7d 00 	call	0xfa	; 0xfa <delay>
 13a:	83 b3       	in	r24, 0x13	; 19
 13c:	9f ef       	ldi	r25, 0xFF	; 255
 13e:	94 bb       	out	0x14, r25	; 20
 140:	9b b3       	in	r25, 0x1b	; 27
 142:	90 63       	ori	r25, 0x30	; 48
 144:	9b bb       	out	0x1b, r25	; 27
 146:	08 95       	ret

00000148 <GLCD_WriteCommand>:
 148:	1f 93       	push	r17
 14a:	18 2f       	mov	r17, r24
 14c:	0e 94 97 00 	call	0x12e	; 0x12e <GLCD_ChceckStatus>
 150:	90 e0       	ldi	r25, 0x00	; 0
 152:	83 70       	andi	r24, 0x03	; 3
 154:	90 70       	andi	r25, 0x00	; 0
 156:	89 2b       	or	r24, r25
 158:	c9 f3       	breq	.-14     	; 0x14c <GLCD_WriteCommand+0x4>
 15a:	15 bb       	out	0x15, r17	; 21
 15c:	8b b3       	in	r24, 0x1b	; 27
 15e:	8f 7a       	andi	r24, 0xAF	; 175
 160:	8b bb       	out	0x1b, r24	; 27
 162:	0e 94 7d 00 	call	0xfa	; 0xfa <delay>
 166:	8b b3       	in	r24, 0x1b	; 27
 168:	80 65       	ori	r24, 0x50	; 80
 16a:	8b bb       	out	0x1b, r24	; 27
 16c:	1f 91       	pop	r17
 16e:	08 95       	ret

00000170 <GLCD_WriteData>:
 170:	1f 93       	push	r17
 172:	18 2f       	mov	r17, r24
 174:	0e 94 97 00 	call	0x12e	; 0x12e <GLCD_ChceckStatus>
 178:	90 e0       	ldi	r25, 0x00	; 0
 17a:	83 70       	andi	r24, 0x03	; 3
 17c:	90 70       	andi	r25, 0x00	; 0
 17e:	89 2b       	or	r24, r25
 180:	c9 f3       	breq	.-14     	; 0x174 <GLCD_WriteData+0x4>
 182:	15 bb       	out	0x15, r17	; 21
 184:	8b b3       	in	r24, 0x1b	; 27
 186:	8b 7a       	andi	r24, 0xAB	; 171
 188:	8b bb       	out	0x1b, r24	; 27
 18a:	0e 94 7d 00 	call	0xfa	; 0xfa <delay>
 18e:	8b b3       	in	r24, 0x1b	; 27
 190:	84 65       	ori	r24, 0x54	; 84
 192:	8b bb       	out	0x1b, r24	; 27
 194:	1f 91       	pop	r17
 196:	08 95       	ret

00000198 <GLCD_ReadData>:
 198:	0e 94 97 00 	call	0x12e	; 0x12e <GLCD_ChceckStatus>
 19c:	90 e0       	ldi	r25, 0x00	; 0
 19e:	83 70       	andi	r24, 0x03	; 3
 1a0:	90 70       	andi	r25, 0x00	; 0
 1a2:	89 2b       	or	r24, r25
 1a4:	c9 f3       	breq	.-14     	; 0x198 <GLCD_ReadData>
 1a6:	14 ba       	out	0x14, r1	; 20
 1a8:	8b b3       	in	r24, 0x1b	; 27
 1aa:	8b 7c       	andi	r24, 0xCB	; 203
 1ac:	8b bb       	out	0x1b, r24	; 27
 1ae:	0e 94 7d 00 	call	0xfa	; 0xfa <delay>
 1b2:	83 b3       	in	r24, 0x13	; 19
 1b4:	9b b3       	in	r25, 0x1b	; 27
 1b6:	94 63       	ori	r25, 0x34	; 52
 1b8:	9b bb       	out	0x1b, r25	; 27
 1ba:	9f ef       	ldi	r25, 0xFF	; 255
 1bc:	94 bb       	out	0x14, r25	; 20
 1be:	08 95       	ret

000001c0 <GLCD_SetAddressPointer>:
 1c0:	1f 93       	push	r17
 1c2:	19 2f       	mov	r17, r25
 1c4:	0e 94 b8 00 	call	0x170	; 0x170 <GLCD_WriteData>
 1c8:	81 2f       	mov	r24, r17
 1ca:	0e 94 b8 00 	call	0x170	; 0x170 <GLCD_WriteData>
 1ce:	84 e2       	ldi	r24, 0x24	; 36
 1d0:	0e 94 a4 00 	call	0x148	; 0x148 <GLCD_WriteCommand>
 1d4:	1f 91       	pop	r17
 1d6:	08 95       	ret

000001d8 <GLCD_TextGoTo>:
 1d8:	70 e0       	ldi	r23, 0x00	; 0
 1da:	94 e0       	ldi	r25, 0x04	; 4
 1dc:	66 0f       	add	r22, r22
 1de:	77 1f       	adc	r23, r23
 1e0:	9a 95       	dec	r25
 1e2:	e1 f7       	brne	.-8      	; 0x1dc <GLCD_TextGoTo+0x4>
 1e4:	9b 01       	movw	r18, r22
 1e6:	28 0f       	add	r18, r24
 1e8:	31 1d       	adc	r19, r1
 1ea:	c9 01       	movw	r24, r18
 1ec:	0e 94 e0 00 	call	0x1c0	; 0x1c0 <GLCD_SetAddressPointer>
 1f0:	08 95       	ret

000001f2 <GLCD_WriteDisplayData>:
 1f2:	0e 94 b8 00 	call	0x170	; 0x170 <GLCD_WriteData>
 1f6:	80 ec       	ldi	r24, 0xC0	; 192
 1f8:	0e 94 a4 00 	call	0x148	; 0x148 <GLCD_WriteCommand>
 1fc:	08 95       	ret

000001fe <GLCD_SetPixel>:
 1fe:	0f 93       	push	r16
 200:	1f 93       	push	r17
 202:	18 2f       	mov	r17, r24
 204:	04 2f       	mov	r16, r20
 206:	86 95       	lsr	r24
 208:	86 95       	lsr	r24
 20a:	86 95       	lsr	r24
 20c:	90 e0       	ldi	r25, 0x00	; 0
 20e:	80 50       	subi	r24, 0x00	; 0
 210:	9f 4f       	sbci	r25, 0xFF	; 255
 212:	70 e0       	ldi	r23, 0x00	; 0
 214:	24 e0       	ldi	r18, 0x04	; 4
 216:	66 0f       	add	r22, r22
 218:	77 1f       	adc	r23, r23
 21a:	2a 95       	dec	r18
 21c:	e1 f7       	brne	.-8      	; 0x216 <GLCD_SetPixel+0x18>
 21e:	86 0f       	add	r24, r22
 220:	97 1f       	adc	r25, r23
 222:	0e 94 e0 00 	call	0x1c0	; 0x1c0 <GLCD_SetAddressPointer>
 226:	85 ec       	ldi	r24, 0xC5	; 197
 228:	0e 94 a4 00 	call	0x148	; 0x148 <GLCD_WriteCommand>
 22c:	0e 94 cc 00 	call	0x198	; 0x198 <GLCD_ReadData>
 230:	48 2f       	mov	r20, r24
 232:	21 2f       	mov	r18, r17
 234:	30 e0       	ldi	r19, 0x00	; 0
 236:	00 23       	and	r16, r16
 238:	69 f0       	breq	.+26     	; 0x254 <GLCD_SetPixel+0x56>
 23a:	20 95       	com	r18
 23c:	30 95       	com	r19
 23e:	27 70       	andi	r18, 0x07	; 7
 240:	30 70       	andi	r19, 0x00	; 0
 242:	81 e0       	ldi	r24, 0x01	; 1
 244:	90 e0       	ldi	r25, 0x00	; 0
 246:	02 c0       	rjmp	.+4      	; 0x24c <GLCD_SetPixel+0x4e>
 248:	88 0f       	add	r24, r24
 24a:	99 1f       	adc	r25, r25
 24c:	2a 95       	dec	r18
 24e:	e2 f7       	brpl	.-8      	; 0x248 <GLCD_SetPixel+0x4a>
 250:	84 2b       	or	r24, r20
 252:	0d c0       	rjmp	.+26     	; 0x26e <GLCD_SetPixel+0x70>
 254:	20 95       	com	r18
 256:	30 95       	com	r19
 258:	27 70       	andi	r18, 0x07	; 7
 25a:	30 70       	andi	r19, 0x00	; 0
 25c:	81 e0       	ldi	r24, 0x01	; 1
 25e:	90 e0       	ldi	r25, 0x00	; 0
 260:	02 c0       	rjmp	.+4      	; 0x266 <GLCD_SetPixel+0x68>
 262:	88 0f       	add	r24, r24
 264:	99 1f       	adc	r25, r25
 266:	2a 95       	dec	r18
 268:	e2 f7       	brpl	.-8      	; 0x262 <GLCD_SetPixel+0x64>
 26a:	80 95       	com	r24
 26c:	84 23       	and	r24, r20
 26e:	0e 94 f9 00 	call	0x1f2	; 0x1f2 <GLCD_WriteDisplayData>
 272:	1f 91       	pop	r17
 274:	0f 91       	pop	r16
 276:	08 95       	ret

00000278 <GLCD_DefineCharacter>:
 278:	0f 93       	push	r16
 27a:	1f 93       	push	r17
 27c:	cf 93       	push	r28
 27e:	df 93       	push	r29
 280:	8b 01       	movw	r16, r22
 282:	90 e0       	ldi	r25, 0x00	; 0
 284:	80 50       	subi	r24, 0x00	; 0
 286:	9e 4f       	sbci	r25, 0xFE	; 254
 288:	33 e0       	ldi	r19, 0x03	; 3
 28a:	88 0f       	add	r24, r24
 28c:	99 1f       	adc	r25, r25
 28e:	3a 95       	dec	r19
 290:	e1 f7       	brne	.-8      	; 0x28a <GLCD_DefineCharacter+0x12>
 292:	0e 94 e0 00 	call	0x1c0	; 0x1c0 <GLCD_SetAddressPointer>
 296:	c0 e0       	ldi	r28, 0x00	; 0
 298:	d0 e0       	ldi	r29, 0x00	; 0
 29a:	f8 01       	movw	r30, r16
 29c:	ec 0f       	add	r30, r28
 29e:	fd 1f       	adc	r31, r29
 2a0:	80 81       	ld	r24, Z
 2a2:	0e 94 f9 00 	call	0x1f2	; 0x1f2 <GLCD_WriteDisplayData>
 2a6:	21 96       	adiw	r28, 0x01	; 1
 2a8:	c8 30       	cpi	r28, 0x08	; 8
 2aa:	d1 05       	cpc	r29, r1
 2ac:	b1 f7       	brne	.-20     	; 0x29a <GLCD_DefineCharacter+0x22>
 2ae:	df 91       	pop	r29
 2b0:	cf 91       	pop	r28
 2b2:	1f 91       	pop	r17
 2b4:	0f 91       	pop	r16
 2b6:	08 95       	ret

000002b8 <GLCD_WriteChar>:
 2b8:	80 52       	subi	r24, 0x20	; 32
 2ba:	0e 94 f9 00 	call	0x1f2	; 0x1f2 <GLCD_WriteDisplayData>
 2be:	08 95       	ret

000002c0 <GLCD_WriteStringPgm>:
 2c0:	cf 93       	push	r28
 2c2:	df 93       	push	r29
 2c4:	ec 01       	movw	r28, r24
 2c6:	02 c0       	rjmp	.+4      	; 0x2cc <GLCD_WriteStringPgm+0xc>
 2c8:	0e 94 5c 01 	call	0x2b8	; 0x2b8 <GLCD_WriteChar>
 2cc:	fe 01       	movw	r30, r28
 2ce:	21 96       	adiw	r28, 0x01	; 1
 2d0:	84 91       	lpm	r24, Z+
 2d2:	88 23       	and	r24, r24
 2d4:	c9 f7       	brne	.-14     	; 0x2c8 <GLCD_WriteStringPgm+0x8>
 2d6:	df 91       	pop	r29
 2d8:	cf 91       	pop	r28
 2da:	08 95       	ret

000002dc <GLCD_WriteString>:
 2dc:	cf 93       	push	r28
 2de:	df 93       	push	r29
 2e0:	ec 01       	movw	r28, r24
 2e2:	03 c0       	rjmp	.+6      	; 0x2ea <GLCD_WriteString+0xe>
 2e4:	21 96       	adiw	r28, 0x01	; 1
 2e6:	0e 94 5c 01 	call	0x2b8	; 0x2b8 <GLCD_WriteChar>
 2ea:	88 81       	ld	r24, Y
 2ec:	88 23       	and	r24, r24
 2ee:	d1 f7       	brne	.-12     	; 0x2e4 <GLCD_WriteString+0x8>
 2f0:	df 91       	pop	r29
 2f2:	cf 91       	pop	r28
 2f4:	08 95       	ret

000002f6 <GLCD_ClearGraphic>:
 2f6:	cf 93       	push	r28
 2f8:	df 93       	push	r29
 2fa:	80 e0       	ldi	r24, 0x00	; 0
 2fc:	91 e0       	ldi	r25, 0x01	; 1
 2fe:	0e 94 e0 00 	call	0x1c0	; 0x1c0 <GLCD_SetAddressPointer>
 302:	c0 e0       	ldi	r28, 0x00	; 0
 304:	d0 e0       	ldi	r29, 0x00	; 0
 306:	80 e0       	ldi	r24, 0x00	; 0
 308:	0e 94 f9 00 	call	0x1f2	; 0x1f2 <GLCD_WriteDisplayData>
 30c:	21 96       	adiw	r28, 0x01	; 1
 30e:	88 e0       	ldi	r24, 0x08	; 8
 310:	c0 30       	cpi	r28, 0x00	; 0
 312:	d8 07       	cpc	r29, r24
 314:	c1 f7       	brne	.-16     	; 0x306 <GLCD_ClearGraphic+0x10>
 316:	df 91       	pop	r29
 318:	cf 91       	pop	r28
 31a:	08 95       	ret

0000031c <GLCD_ClearCG>:
 31c:	cf 93       	push	r28
 31e:	df 93       	push	r29
 320:	80 e0       	ldi	r24, 0x00	; 0
 322:	90 e1       	ldi	r25, 0x10	; 16
 324:	0e 94 e0 00 	call	0x1c0	; 0x1c0 <GLCD_SetAddressPointer>
 328:	c0 e0       	ldi	r28, 0x00	; 0
 32a:	d0 e0       	ldi	r29, 0x00	; 0
 32c:	80 e0       	ldi	r24, 0x00	; 0
 32e:	0e 94 f9 00 	call	0x1f2	; 0x1f2 <GLCD_WriteDisplayData>
 332:	21 96       	adiw	r28, 0x01	; 1
 334:	88 e0       	ldi	r24, 0x08	; 8
 336:	c0 30       	cpi	r28, 0x00	; 0
 338:	d8 07       	cpc	r29, r24
 33a:	c1 f7       	brne	.-16     	; 0x32c <GLCD_ClearCG+0x10>
 33c:	df 91       	pop	r29
 33e:	cf 91       	pop	r28
 340:	08 95       	ret

00000342 <GLCD_ClearText>:
 342:	cf 93       	push	r28
 344:	df 93       	push	r29
 346:	80 e0       	ldi	r24, 0x00	; 0
 348:	90 e0       	ldi	r25, 0x00	; 0
 34a:	0e 94 e0 00 	call	0x1c0	; 0x1c0 <GLCD_SetAddressPointer>
 34e:	c0 e0       	ldi	r28, 0x00	; 0
 350:	d0 e0       	ldi	r29, 0x00	; 0
 352:	80 e0       	ldi	r24, 0x00	; 0
 354:	0e 94 f9 00 	call	0x1f2	; 0x1f2 <GLCD_WriteDisplayData>
 358:	21 96       	adiw	r28, 0x01	; 1
 35a:	81 e0       	ldi	r24, 0x01	; 1
 35c:	c0 30       	cpi	r28, 0x00	; 0
 35e:	d8 07       	cpc	r29, r24
 360:	c1 f7       	brne	.-16     	; 0x352 <GLCD_ClearText+0x10>
 362:	df 91       	pop	r29
 364:	cf 91       	pop	r28
 366:	08 95       	ret

00000368 <GLCD_GraphicGoTo>:
 368:	86 95       	lsr	r24
 36a:	86 95       	lsr	r24
 36c:	86 95       	lsr	r24
 36e:	90 e0       	ldi	r25, 0x00	; 0
 370:	80 50       	subi	r24, 0x00	; 0
 372:	9f 4f       	sbci	r25, 0xFF	; 255
 374:	70 e0       	ldi	r23, 0x00	; 0
 376:	44 e0       	ldi	r20, 0x04	; 4
 378:	66 0f       	add	r22, r22
 37a:	77 1f       	adc	r23, r23
 37c:	4a 95       	dec	r20
 37e:	e1 f7       	brne	.-8      	; 0x378 <GLCD_GraphicGoTo+0x10>
 380:	86 0f       	add	r24, r22
 382:	97 1f       	adc	r25, r23
 384:	0e 94 e0 00 	call	0x1c0	; 0x1c0 <GLCD_SetAddressPointer>
 388:	08 95       	ret

0000038a <GLCD_Bitmap>:
 38a:	af 92       	push	r10
 38c:	bf 92       	push	r11
 38e:	cf 92       	push	r12
 390:	df 92       	push	r13
 392:	ef 92       	push	r14
 394:	ff 92       	push	r15
 396:	0f 93       	push	r16
 398:	1f 93       	push	r17
 39a:	cf 93       	push	r28
 39c:	df 93       	push	r29
 39e:	a6 2e       	mov	r10, r22
 3a0:	b4 2e       	mov	r11, r20
 3a2:	d2 2e       	mov	r13, r18
 3a4:	c0 2e       	mov	r12, r16
 3a6:	d6 94       	lsr	r13
 3a8:	d6 94       	lsr	r13
 3aa:	d6 94       	lsr	r13
 3ac:	7c 01       	movw	r14, r24
 3ae:	00 e0       	ldi	r16, 0x00	; 0
 3b0:	15 c0       	rjmp	.+42     	; 0x3dc <GLCD_Bitmap+0x52>
 3b2:	60 2f       	mov	r22, r16
 3b4:	6b 0d       	add	r22, r11
 3b6:	8a 2d       	mov	r24, r10
 3b8:	0e 94 b4 01 	call	0x368	; 0x368 <GLCD_GraphicGoTo>
 3bc:	e7 01       	movw	r28, r14
 3be:	10 e0       	ldi	r17, 0x00	; 0
 3c0:	06 c0       	rjmp	.+12     	; 0x3ce <GLCD_Bitmap+0x44>
 3c2:	fe 01       	movw	r30, r28
 3c4:	84 91       	lpm	r24, Z+
 3c6:	0e 94 f9 00 	call	0x1f2	; 0x1f2 <GLCD_WriteDisplayData>
 3ca:	1f 5f       	subi	r17, 0xFF	; 255
 3cc:	21 96       	adiw	r28, 0x01	; 1
 3ce:	1d 15       	cp	r17, r13
 3d0:	c0 f3       	brcs	.-16     	; 0x3c2 <GLCD_Bitmap+0x38>
 3d2:	0f 5f       	subi	r16, 0xFF	; 255
 3d4:	80 e1       	ldi	r24, 0x10	; 16
 3d6:	90 e0       	ldi	r25, 0x00	; 0
 3d8:	e8 0e       	add	r14, r24
 3da:	f9 1e       	adc	r15, r25
 3dc:	0c 15       	cp	r16, r12
 3de:	48 f3       	brcs	.-46     	; 0x3b2 <GLCD_Bitmap+0x28>
 3e0:	df 91       	pop	r29
 3e2:	cf 91       	pop	r28
 3e4:	1f 91       	pop	r17
 3e6:	0f 91       	pop	r16
 3e8:	ff 90       	pop	r15
 3ea:	ef 90       	pop	r14
 3ec:	df 90       	pop	r13
 3ee:	cf 90       	pop	r12
 3f0:	bf 90       	pop	r11
 3f2:	af 90       	pop	r10
 3f4:	08 95       	ret

000003f6 <GLCD_Initalize>:
 3f6:	8f ef       	ldi	r24, 0xFF	; 255
 3f8:	84 bb       	out	0x14, r24	; 20
 3fa:	87 e7       	ldi	r24, 0x77	; 119
 3fc:	8a bb       	out	0x1a, r24	; 26
 3fe:	8b b3       	in	r24, 0x1b	; 27
 400:	87 67       	ori	r24, 0x77	; 119
 402:	8b bb       	out	0x1b, r24	; 27
 404:	d9 98       	cbi	0x1b, 1	; 27
 406:	80 ed       	ldi	r24, 0xD0	; 208
 408:	97 e0       	ldi	r25, 0x07	; 7
 40a:	01 97       	sbiw	r24, 0x01	; 1
 40c:	f1 f7       	brne	.-4      	; 0x40a <GLCD_Initalize+0x14>
 40e:	d9 9a       	sbi	0x1b, 1	; 27
 410:	d8 98       	cbi	0x1b, 0	; 27
 412:	80 e0       	ldi	r24, 0x00	; 0
 414:	0e 94 b8 00 	call	0x170	; 0x170 <GLCD_WriteData>
 418:	81 e0       	ldi	r24, 0x01	; 1
 41a:	0e 94 b8 00 	call	0x170	; 0x170 <GLCD_WriteData>
 41e:	82 e4       	ldi	r24, 0x42	; 66
 420:	0e 94 a4 00 	call	0x148	; 0x148 <GLCD_WriteCommand>
 424:	80 e1       	ldi	r24, 0x10	; 16
 426:	0e 94 b8 00 	call	0x170	; 0x170 <GLCD_WriteData>
 42a:	80 e0       	ldi	r24, 0x00	; 0
 42c:	0e 94 b8 00 	call	0x170	; 0x170 <GLCD_WriteData>
 430:	83 e4       	ldi	r24, 0x43	; 67
 432:	0e 94 a4 00 	call	0x148	; 0x148 <GLCD_WriteCommand>
 436:	80 e0       	ldi	r24, 0x00	; 0
 438:	0e 94 b8 00 	call	0x170	; 0x170 <GLCD_WriteData>
 43c:	80 e0       	ldi	r24, 0x00	; 0
 43e:	0e 94 b8 00 	call	0x170	; 0x170 <GLCD_WriteData>
 442:	80 e4       	ldi	r24, 0x40	; 64
 444:	0e 94 a4 00 	call	0x148	; 0x148 <GLCD_WriteCommand>
 448:	80 e1       	ldi	r24, 0x10	; 16
 44a:	0e 94 b8 00 	call	0x170	; 0x170 <GLCD_WriteData>
 44e:	80 e0       	ldi	r24, 0x00	; 0
 450:	0e 94 b8 00 	call	0x170	; 0x170 <GLCD_WriteData>
 454:	81 e4       	ldi	r24, 0x41	; 65
 456:	0e 94 a4 00 	call	0x148	; 0x148 <GLCD_WriteCommand>
 45a:	82 e0       	ldi	r24, 0x02	; 2
 45c:	0e 94 b8 00 	call	0x170	; 0x170 <GLCD_WriteData>
 460:	80 e0       	ldi	r24, 0x00	; 0
 462:	0e 94 b8 00 	call	0x170	; 0x170 <GLCD_WriteData>
 466:	82 e2       	ldi	r24, 0x22	; 34
 468:	0e 94 a4 00 	call	0x148	; 0x148 <GLCD_WriteCommand>
 46c:	8c e9       	ldi	r24, 0x9C	; 156
 46e:	0e 94 a4 00 	call	0x148	; 0x148 <GLCD_WriteCommand>
 472:	81 e8       	ldi	r24, 0x81	; 129
 474:	0e 94 a4 00 	call	0x148	; 0x148 <GLCD_WriteCommand>
 478:	08 95       	ret

0000047a <_exit>:
 47a:	f8 94       	cli

0000047c <__stop_program>:
 47c:	ff cf       	rjmp	.-2      	; 0x47c <__stop_program>
