
ejemplo12.elf:     file format elf32-avr

Sections:
Idx Name          Size      VMA       LMA       File off  Algn
  0 .data         00000074  00800100  00000404  00000498  2**0
                  CONTENTS, ALLOC, LOAD, DATA
  1 .text         00000404  00000000  00000000  00000094  2**1
                  CONTENTS, ALLOC, LOAD, READONLY, CODE
  2 .bss          00000001  00800174  00800174  0000050c  2**0
                  ALLOC

Disassembly of section .text:

00000000 <__vectors>:
   0:	0c 94 46 00 	jmp	0x8c	; 0x8c <__ctors_end>
   4:	0c 94 65 00 	jmp	0xca	; 0xca <__bad_interrupt>
   8:	0c 94 65 00 	jmp	0xca	; 0xca <__bad_interrupt>
   c:	0c 94 65 00 	jmp	0xca	; 0xca <__bad_interrupt>
  10:	0c 94 65 00 	jmp	0xca	; 0xca <__bad_interrupt>
  14:	0c 94 65 00 	jmp	0xca	; 0xca <__bad_interrupt>
  18:	0c 94 65 00 	jmp	0xca	; 0xca <__bad_interrupt>
  1c:	0c 94 65 00 	jmp	0xca	; 0xca <__bad_interrupt>
  20:	0c 94 65 00 	jmp	0xca	; 0xca <__bad_interrupt>
  24:	0c 94 65 00 	jmp	0xca	; 0xca <__bad_interrupt>
  28:	0c 94 65 00 	jmp	0xca	; 0xca <__bad_interrupt>
  2c:	0c 94 65 00 	jmp	0xca	; 0xca <__bad_interrupt>
  30:	0c 94 65 00 	jmp	0xca	; 0xca <__bad_interrupt>
  34:	0c 94 65 00 	jmp	0xca	; 0xca <__bad_interrupt>
  38:	0c 94 65 00 	jmp	0xca	; 0xca <__bad_interrupt>
  3c:	0c 94 b0 00 	jmp	0x160	; 0x160 <__vector_15>
  40:	0c 94 a6 00 	jmp	0x14c	; 0x14c <__vector_16>
  44:	0c 94 65 00 	jmp	0xca	; 0xca <__bad_interrupt>
  48:	0c 94 65 00 	jmp	0xca	; 0xca <__bad_interrupt>
  4c:	0c 94 65 00 	jmp	0xca	; 0xca <__bad_interrupt>
  50:	0c 94 65 00 	jmp	0xca	; 0xca <__bad_interrupt>
  54:	0c 94 65 00 	jmp	0xca	; 0xca <__bad_interrupt>
  58:	0c 94 65 00 	jmp	0xca	; 0xca <__bad_interrupt>
  5c:	0c 94 65 00 	jmp	0xca	; 0xca <__bad_interrupt>
  60:	0c 94 65 00 	jmp	0xca	; 0xca <__bad_interrupt>
  64:	0c 94 65 00 	jmp	0xca	; 0xca <__bad_interrupt>
  68:	0c 94 65 00 	jmp	0xca	; 0xca <__bad_interrupt>
  6c:	0c 94 65 00 	jmp	0xca	; 0xca <__bad_interrupt>
  70:	0c 94 65 00 	jmp	0xca	; 0xca <__bad_interrupt>
  74:	0c 94 65 00 	jmp	0xca	; 0xca <__bad_interrupt>
  78:	0c 94 65 00 	jmp	0xca	; 0xca <__bad_interrupt>
  7c:	0c 94 65 00 	jmp	0xca	; 0xca <__bad_interrupt>
  80:	0c 94 65 00 	jmp	0xca	; 0xca <__bad_interrupt>
  84:	0c 94 65 00 	jmp	0xca	; 0xca <__bad_interrupt>
  88:	0c 94 65 00 	jmp	0xca	; 0xca <__bad_interrupt>

0000008c <__ctors_end>:
  8c:	11 24       	eor	r1, r1
  8e:	1f be       	out	0x3f, r1	; 63
  90:	cf ef       	ldi	r28, 0xFF	; 255
  92:	d0 e1       	ldi	r29, 0x10	; 16
  94:	de bf       	out	0x3e, r29	; 62
  96:	cd bf       	out	0x3d, r28	; 61

00000098 <__do_copy_data>:
  98:	11 e0       	ldi	r17, 0x01	; 1
  9a:	a0 e0       	ldi	r26, 0x00	; 0
  9c:	b1 e0       	ldi	r27, 0x01	; 1
  9e:	e4 e0       	ldi	r30, 0x04	; 4
  a0:	f4 e0       	ldi	r31, 0x04	; 4
  a2:	00 e0       	ldi	r16, 0x00	; 0
  a4:	0b bf       	out	0x3b, r16	; 59
  a6:	02 c0       	rjmp	.+4      	; 0xac <__do_copy_data+0x14>
  a8:	07 90       	elpm	r0, Z+
  aa:	0d 92       	st	X+, r0
  ac:	a4 37       	cpi	r26, 0x74	; 116
  ae:	b1 07       	cpc	r27, r17
  b0:	d9 f7       	brne	.-10     	; 0xa8 <__do_copy_data+0x10>

000000b2 <__do_clear_bss>:
  b2:	11 e0       	ldi	r17, 0x01	; 1
  b4:	a4 e7       	ldi	r26, 0x74	; 116
  b6:	b1 e0       	ldi	r27, 0x01	; 1
  b8:	01 c0       	rjmp	.+2      	; 0xbc <.do_clear_bss_start>

000000ba <.do_clear_bss_loop>:
  ba:	1d 92       	st	X+, r1

000000bc <.do_clear_bss_start>:
  bc:	a5 37       	cpi	r26, 0x75	; 117
  be:	b1 07       	cpc	r27, r17
  c0:	e1 f7       	brne	.-8      	; 0xba <.do_clear_bss_loop>
  c2:	0e 94 cd 01 	call	0x39a	; 0x39a <main>
  c6:	0c 94 00 02 	jmp	0x400	; 0x400 <_exit>

000000ca <__bad_interrupt>:
  ca:	0c 94 00 00 	jmp	0	; 0x0 <__vectors>

000000ce <Timer0_init>:
  ce:	58 2f       	mov	r21, r24
  d0:	80 e0       	ldi	r24, 0x00	; 0
  d2:	54 30       	cpi	r21, 0x04	; 4
  d4:	08 f0       	brcs	.+2      	; 0xd8 <Timer0_init+0xa>
  d6:	81 e0       	ldi	r24, 0x01	; 1
  d8:	90 e0       	ldi	r25, 0x00	; 0
  da:	66 30       	cpi	r22, 0x06	; 6
  dc:	08 f0       	brcs	.+2      	; 0xe0 <Timer0_init+0x12>
  de:	91 e0       	ldi	r25, 0x01	; 1
  e0:	89 2b       	or	r24, r25
  e2:	90 e0       	ldi	r25, 0x00	; 0
  e4:	20 e0       	ldi	r18, 0x00	; 0
  e6:	30 e0       	ldi	r19, 0x00	; 0
  e8:	44 30       	cpi	r20, 0x04	; 4
  ea:	10 f0       	brcs	.+4      	; 0xf0 <Timer0_init+0x22>
  ec:	21 e0       	ldi	r18, 0x01	; 1
  ee:	30 e0       	ldi	r19, 0x00	; 0
  f0:	82 2b       	or	r24, r18
  f2:	93 2b       	or	r25, r19
  f4:	89 2b       	or	r24, r25
  f6:	41 f5       	brne	.+80     	; 0x148 <Timer0_init+0x7a>
  f8:	13 be       	out	0x33, r1	; 51
  fa:	87 b7       	in	r24, 0x37	; 55
  fc:	8e 7f       	andi	r24, 0xFE	; 254
  fe:	87 bf       	out	0x37, r24	; 55
 100:	51 30       	cpi	r21, 0x01	; 1
 102:	51 f0       	breq	.+20     	; 0x118 <Timer0_init+0x4a>
 104:	51 30       	cpi	r21, 0x01	; 1
 106:	28 f0       	brcs	.+10     	; 0x112 <Timer0_init+0x44>
 108:	52 30       	cpi	r21, 0x02	; 2
 10a:	59 f0       	breq	.+22     	; 0x122 <Timer0_init+0x54>
 10c:	53 30       	cpi	r21, 0x03	; 3
 10e:	e1 f4       	brne	.+56     	; 0x148 <Timer0_init+0x7a>
 110:	0c c0       	rjmp	.+24     	; 0x12a <Timer0_init+0x5c>
 112:	c6 9a       	sbi	0x18, 6	; 24
 114:	83 b7       	in	r24, 0x33	; 51
 116:	0d c0       	rjmp	.+26     	; 0x132 <Timer0_init+0x64>
 118:	41 30       	cpi	r20, 0x01	; 1
 11a:	b1 f0       	breq	.+44     	; 0x148 <Timer0_init+0x7a>
 11c:	83 b7       	in	r24, 0x33	; 51
 11e:	80 64       	ori	r24, 0x40	; 64
 120:	08 c0       	rjmp	.+16     	; 0x132 <Timer0_init+0x64>
 122:	c6 9a       	sbi	0x18, 6	; 24
 124:	83 b7       	in	r24, 0x33	; 51
 126:	88 60       	ori	r24, 0x08	; 8
 128:	04 c0       	rjmp	.+8      	; 0x132 <Timer0_init+0x64>
 12a:	41 30       	cpi	r20, 0x01	; 1
 12c:	69 f0       	breq	.+26     	; 0x148 <Timer0_init+0x7a>
 12e:	83 b7       	in	r24, 0x33	; 51
 130:	81 64       	ori	r24, 0x41	; 65
 132:	83 bf       	out	0x33, r24	; 51
 134:	83 b7       	in	r24, 0x33	; 51
 136:	42 95       	swap	r20
 138:	40 7f       	andi	r20, 0xF0	; 240
 13a:	84 2b       	or	r24, r20
 13c:	83 bf       	out	0x33, r24	; 51
 13e:	83 b7       	in	r24, 0x33	; 51
 140:	86 2b       	or	r24, r22
 142:	83 bf       	out	0x33, r24	; 51
 144:	81 e0       	ldi	r24, 0x01	; 1
 146:	08 95       	ret
 148:	80 e0       	ldi	r24, 0x00	; 0
 14a:	08 95       	ret

0000014c <__vector_16>:
 14c:	1f 92       	push	r1
 14e:	0f 92       	push	r0
 150:	0f b6       	in	r0, 0x3f	; 63
 152:	0f 92       	push	r0
 154:	11 24       	eor	r1, r1
 156:	0f 90       	pop	r0
 158:	0f be       	out	0x3f, r0	; 63
 15a:	0f 90       	pop	r0
 15c:	1f 90       	pop	r1
 15e:	18 95       	reti

00000160 <__vector_15>:
 160:	1f 92       	push	r1
 162:	0f 92       	push	r0
 164:	0f b6       	in	r0, 0x3f	; 63
 166:	0f 92       	push	r0
 168:	11 24       	eor	r1, r1
 16a:	0f 90       	pop	r0
 16c:	0f be       	out	0x3f, r0	; 63
 16e:	0f 90       	pop	r0
 170:	1f 90       	pop	r1
 172:	18 95       	reti

00000174 <lcd_write>:
 174:	66 23       	and	r22, r22
 176:	11 f0       	breq	.+4      	; 0x17c <lcd_write+0x8>
 178:	a8 9a       	sbi	0x15, 0	; 21
 17a:	01 c0       	rjmp	.+2      	; 0x17e <lcd_write+0xa>
 17c:	a8 98       	cbi	0x15, 0	; 21
 17e:	a9 98       	cbi	0x15, 1	; 21
 180:	a4 9a       	sbi	0x14, 4	; 20
 182:	a5 9a       	sbi	0x14, 5	; 20
 184:	a6 9a       	sbi	0x14, 6	; 20
 186:	a7 9a       	sbi	0x14, 7	; 20
 188:	af 98       	cbi	0x15, 7	; 21
 18a:	ae 98       	cbi	0x15, 6	; 21
 18c:	ad 98       	cbi	0x15, 5	; 21
 18e:	ac 98       	cbi	0x15, 4	; 21
 190:	87 fd       	sbrc	r24, 7
 192:	af 9a       	sbi	0x15, 7	; 21
 194:	86 fd       	sbrc	r24, 6
 196:	ae 9a       	sbi	0x15, 6	; 21
 198:	85 fd       	sbrc	r24, 5
 19a:	ad 9a       	sbi	0x15, 5	; 21
 19c:	84 fd       	sbrc	r24, 4
 19e:	ac 9a       	sbi	0x15, 4	; 21
 1a0:	aa 9a       	sbi	0x15, 2	; 21
 1a2:	00 c0       	rjmp	.+0      	; 0x1a4 <lcd_write+0x30>
 1a4:	aa 98       	cbi	0x15, 2	; 21
 1a6:	af 98       	cbi	0x15, 7	; 21
 1a8:	ae 98       	cbi	0x15, 6	; 21
 1aa:	ad 98       	cbi	0x15, 5	; 21
 1ac:	ac 98       	cbi	0x15, 4	; 21
 1ae:	83 fd       	sbrc	r24, 3
 1b0:	af 9a       	sbi	0x15, 7	; 21
 1b2:	82 fd       	sbrc	r24, 2
 1b4:	ae 9a       	sbi	0x15, 6	; 21
 1b6:	81 fd       	sbrc	r24, 1
 1b8:	ad 9a       	sbi	0x15, 5	; 21
 1ba:	80 fd       	sbrc	r24, 0
 1bc:	ac 9a       	sbi	0x15, 4	; 21
 1be:	aa 9a       	sbi	0x15, 2	; 21
 1c0:	00 c0       	rjmp	.+0      	; 0x1c2 <lcd_write+0x4e>
 1c2:	aa 98       	cbi	0x15, 2	; 21
 1c4:	ac 9a       	sbi	0x15, 4	; 21
 1c6:	ad 9a       	sbi	0x15, 5	; 21
 1c8:	ae 9a       	sbi	0x15, 6	; 21
 1ca:	af 9a       	sbi	0x15, 7	; 21
 1cc:	08 95       	ret

000001ce <lcd_read>:
 1ce:	88 23       	and	r24, r24
 1d0:	11 f0       	breq	.+4      	; 0x1d6 <lcd_read+0x8>
 1d2:	a8 9a       	sbi	0x15, 0	; 21
 1d4:	01 c0       	rjmp	.+2      	; 0x1d8 <lcd_read+0xa>
 1d6:	a8 98       	cbi	0x15, 0	; 21
 1d8:	a9 9a       	sbi	0x15, 1	; 21
 1da:	a4 98       	cbi	0x14, 4	; 20
 1dc:	a5 98       	cbi	0x14, 5	; 20
 1de:	a6 98       	cbi	0x14, 6	; 20
 1e0:	a7 98       	cbi	0x14, 7	; 20
 1e2:	aa 9a       	sbi	0x15, 2	; 21
 1e4:	00 c0       	rjmp	.+0      	; 0x1e6 <lcd_read+0x18>
 1e6:	9c 9b       	sbis	0x13, 4	; 19
 1e8:	02 c0       	rjmp	.+4      	; 0x1ee <lcd_read+0x20>
 1ea:	80 e1       	ldi	r24, 0x10	; 16
 1ec:	01 c0       	rjmp	.+2      	; 0x1f0 <lcd_read+0x22>
 1ee:	80 e0       	ldi	r24, 0x00	; 0
 1f0:	9d 99       	sbic	0x13, 5	; 19
 1f2:	80 62       	ori	r24, 0x20	; 32
 1f4:	9e 99       	sbic	0x13, 6	; 19
 1f6:	80 64       	ori	r24, 0x40	; 64
 1f8:	9f 99       	sbic	0x13, 7	; 19
 1fa:	80 68       	ori	r24, 0x80	; 128
 1fc:	aa 98       	cbi	0x15, 2	; 21
 1fe:	00 c0       	rjmp	.+0      	; 0x200 <lcd_read+0x32>
 200:	aa 9a       	sbi	0x15, 2	; 21
 202:	00 c0       	rjmp	.+0      	; 0x204 <lcd_read+0x36>
 204:	9c 99       	sbic	0x13, 4	; 19
 206:	81 60       	ori	r24, 0x01	; 1
 208:	9d 99       	sbic	0x13, 5	; 19
 20a:	82 60       	ori	r24, 0x02	; 2
 20c:	9e 99       	sbic	0x13, 6	; 19
 20e:	84 60       	ori	r24, 0x04	; 4
 210:	9f 99       	sbic	0x13, 7	; 19
 212:	88 60       	ori	r24, 0x08	; 8
 214:	aa 98       	cbi	0x15, 2	; 21
 216:	08 95       	ret

00000218 <lcd_waitbusy>:
 218:	80 e0       	ldi	r24, 0x00	; 0
 21a:	0e 94 e7 00 	call	0x1ce	; 0x1ce <lcd_read>
 21e:	87 fd       	sbrc	r24, 7
 220:	fb cf       	rjmp	.-10     	; 0x218 <lcd_waitbusy>
 222:	84 e0       	ldi	r24, 0x04	; 4
 224:	90 e0       	ldi	r25, 0x00	; 0
 226:	01 97       	sbiw	r24, 0x01	; 1
 228:	f1 f7       	brne	.-4      	; 0x226 <lcd_waitbusy+0xe>
 22a:	80 e0       	ldi	r24, 0x00	; 0
 22c:	0e 94 e7 00 	call	0x1ce	; 0x1ce <lcd_read>
 230:	08 95       	ret

00000232 <lcd_command>:
 232:	1f 93       	push	r17
 234:	18 2f       	mov	r17, r24
 236:	0e 94 0c 01 	call	0x218	; 0x218 <lcd_waitbusy>
 23a:	81 2f       	mov	r24, r17
 23c:	60 e0       	ldi	r22, 0x00	; 0
 23e:	0e 94 ba 00 	call	0x174	; 0x174 <lcd_write>
 242:	1f 91       	pop	r17
 244:	08 95       	ret

00000246 <lcd_data>:
 246:	1f 93       	push	r17
 248:	18 2f       	mov	r17, r24
 24a:	0e 94 0c 01 	call	0x218	; 0x218 <lcd_waitbusy>
 24e:	81 2f       	mov	r24, r17
 250:	61 e0       	ldi	r22, 0x01	; 1
 252:	0e 94 ba 00 	call	0x174	; 0x174 <lcd_write>
 256:	1f 91       	pop	r17
 258:	08 95       	ret

0000025a <lcd_gotoxy>:
 25a:	66 23       	and	r22, r22
 25c:	11 f4       	brne	.+4      	; 0x262 <lcd_gotoxy+0x8>
 25e:	80 58       	subi	r24, 0x80	; 128
 260:	01 c0       	rjmp	.+2      	; 0x264 <lcd_gotoxy+0xa>
 262:	80 54       	subi	r24, 0x40	; 64
 264:	0e 94 19 01 	call	0x232	; 0x232 <lcd_command>
 268:	08 95       	ret

0000026a <lcd_getxy>:
 26a:	0e 94 0c 01 	call	0x218	; 0x218 <lcd_waitbusy>
 26e:	90 e0       	ldi	r25, 0x00	; 0
 270:	08 95       	ret

00000272 <lcd_clrscr>:
 272:	81 e0       	ldi	r24, 0x01	; 1
 274:	0e 94 19 01 	call	0x232	; 0x232 <lcd_command>
 278:	08 95       	ret

0000027a <lcd_home>:
 27a:	82 e0       	ldi	r24, 0x02	; 2
 27c:	0e 94 19 01 	call	0x232	; 0x232 <lcd_command>
 280:	08 95       	ret

00000282 <lcd_putc>:
 282:	1f 93       	push	r17
 284:	18 2f       	mov	r17, r24
 286:	0e 94 0c 01 	call	0x218	; 0x218 <lcd_waitbusy>
 28a:	1a 30       	cpi	r17, 0x0A	; 10
 28c:	49 f4       	brne	.+18     	; 0x2a0 <lcd_putc+0x1e>
 28e:	80 34       	cpi	r24, 0x40	; 64
 290:	10 f0       	brcs	.+4      	; 0x296 <lcd_putc+0x14>
 292:	80 e0       	ldi	r24, 0x00	; 0
 294:	01 c0       	rjmp	.+2      	; 0x298 <lcd_putc+0x16>
 296:	80 e4       	ldi	r24, 0x40	; 64
 298:	80 58       	subi	r24, 0x80	; 128
 29a:	0e 94 19 01 	call	0x232	; 0x232 <lcd_command>
 29e:	04 c0       	rjmp	.+8      	; 0x2a8 <lcd_putc+0x26>
 2a0:	81 2f       	mov	r24, r17
 2a2:	61 e0       	ldi	r22, 0x01	; 1
 2a4:	0e 94 ba 00 	call	0x174	; 0x174 <lcd_write>
 2a8:	1f 91       	pop	r17
 2aa:	08 95       	ret

000002ac <lcd_puts>:
 2ac:	cf 93       	push	r28
 2ae:	df 93       	push	r29
 2b0:	ec 01       	movw	r28, r24
 2b2:	02 c0       	rjmp	.+4      	; 0x2b8 <lcd_puts+0xc>
 2b4:	0e 94 41 01 	call	0x282	; 0x282 <lcd_putc>
 2b8:	89 91       	ld	r24, Y+
 2ba:	88 23       	and	r24, r24
 2bc:	d9 f7       	brne	.-10     	; 0x2b4 <lcd_puts+0x8>
 2be:	df 91       	pop	r29
 2c0:	cf 91       	pop	r28
 2c2:	08 95       	ret

000002c4 <lcd_puts_p>:
 2c4:	cf 93       	push	r28
 2c6:	df 93       	push	r29
 2c8:	ec 01       	movw	r28, r24
 2ca:	02 c0       	rjmp	.+4      	; 0x2d0 <lcd_puts_p+0xc>
 2cc:	0e 94 41 01 	call	0x282	; 0x282 <lcd_putc>
 2d0:	fe 01       	movw	r30, r28
 2d2:	21 96       	adiw	r28, 0x01	; 1
 2d4:	84 91       	lpm	r24, Z+
 2d6:	88 23       	and	r24, r24
 2d8:	c9 f7       	brne	.-14     	; 0x2cc <lcd_puts_p+0x8>
 2da:	df 91       	pop	r29
 2dc:	cf 91       	pop	r28
 2de:	08 95       	ret

000002e0 <lcd_init>:
 2e0:	1f 93       	push	r17
 2e2:	18 2f       	mov	r17, r24
 2e4:	a0 9a       	sbi	0x14, 0	; 20
 2e6:	a1 9a       	sbi	0x14, 1	; 20
 2e8:	a2 9a       	sbi	0x14, 2	; 20
 2ea:	a4 9a       	sbi	0x14, 4	; 20
 2ec:	a5 9a       	sbi	0x14, 5	; 20
 2ee:	a6 9a       	sbi	0x14, 6	; 20
 2f0:	a7 9a       	sbi	0x14, 7	; 20
 2f2:	80 e0       	ldi	r24, 0x00	; 0
 2f4:	9d e7       	ldi	r25, 0x7D	; 125
 2f6:	01 97       	sbiw	r24, 0x01	; 1
 2f8:	f1 f7       	brne	.-4      	; 0x2f6 <lcd_init+0x16>
 2fa:	ad 9a       	sbi	0x15, 5	; 21
 2fc:	ac 9a       	sbi	0x15, 4	; 21
 2fe:	aa 9a       	sbi	0x15, 2	; 21
 300:	00 c0       	rjmp	.+0      	; 0x302 <lcd_init+0x22>
 302:	aa 98       	cbi	0x15, 2	; 21
 304:	80 e0       	ldi	r24, 0x00	; 0
 306:	97 e2       	ldi	r25, 0x27	; 39
 308:	01 97       	sbiw	r24, 0x01	; 1
 30a:	f1 f7       	brne	.-4      	; 0x308 <lcd_init+0x28>
 30c:	aa 9a       	sbi	0x15, 2	; 21
 30e:	00 c0       	rjmp	.+0      	; 0x310 <lcd_init+0x30>
 310:	aa 98       	cbi	0x15, 2	; 21
 312:	80 e8       	ldi	r24, 0x80	; 128
 314:	90 e0       	ldi	r25, 0x00	; 0
 316:	fc 01       	movw	r30, r24
 318:	31 97       	sbiw	r30, 0x01	; 1
 31a:	f1 f7       	brne	.-4      	; 0x318 <lcd_init+0x38>
 31c:	aa 9a       	sbi	0x15, 2	; 21
 31e:	00 c0       	rjmp	.+0      	; 0x320 <lcd_init+0x40>
 320:	aa 98       	cbi	0x15, 2	; 21
 322:	fc 01       	movw	r30, r24
 324:	31 97       	sbiw	r30, 0x01	; 1
 326:	f1 f7       	brne	.-4      	; 0x324 <lcd_init+0x44>
 328:	ac 98       	cbi	0x15, 4	; 21
 32a:	aa 9a       	sbi	0x15, 2	; 21
 32c:	00 c0       	rjmp	.+0      	; 0x32e <lcd_init+0x4e>
 32e:	aa 98       	cbi	0x15, 2	; 21
 330:	01 97       	sbiw	r24, 0x01	; 1
 332:	f1 f7       	brne	.-4      	; 0x330 <lcd_init+0x50>
 334:	88 e2       	ldi	r24, 0x28	; 40
 336:	0e 94 19 01 	call	0x232	; 0x232 <lcd_command>
 33a:	88 e0       	ldi	r24, 0x08	; 8
 33c:	0e 94 19 01 	call	0x232	; 0x232 <lcd_command>
 340:	0e 94 39 01 	call	0x272	; 0x272 <lcd_clrscr>
 344:	86 e0       	ldi	r24, 0x06	; 6
 346:	0e 94 19 01 	call	0x232	; 0x232 <lcd_command>
 34a:	81 2f       	mov	r24, r17
 34c:	0e 94 19 01 	call	0x232	; 0x232 <lcd_command>
 350:	1f 91       	pop	r17
 352:	08 95       	ret

00000354 <uart0_init>:
 354:	1b b8       	out	0x0b, r1	; 11
 356:	8a b1       	in	r24, 0x0a	; 10
 358:	88 61       	ori	r24, 0x18	; 24
 35a:	8a b9       	out	0x0a, r24	; 10
 35c:	e5 e9       	ldi	r30, 0x95	; 149
 35e:	f0 e0       	ldi	r31, 0x00	; 0
 360:	80 81       	ld	r24, Z
 362:	86 60       	ori	r24, 0x06	; 6
 364:	80 83       	st	Z, r24
 366:	83 e3       	ldi	r24, 0x33	; 51
 368:	89 b9       	out	0x09, r24	; 9
 36a:	10 92 90 00 	sts	0x0090, r1
 36e:	08 95       	ret

00000370 <uart0_putchar>:
 370:	5d 9b       	sbis	0x0b, 5	; 11
 372:	fe cf       	rjmp	.-4      	; 0x370 <uart0_putchar>
 374:	8c b9       	out	0x0c, r24	; 12
 376:	08 95       	ret

00000378 <uart0_puts>:
 378:	fc 01       	movw	r30, r24
 37a:	03 c0       	rjmp	.+6      	; 0x382 <uart0_puts+0xa>
 37c:	5d 9b       	sbis	0x0b, 5	; 11
 37e:	fe cf       	rjmp	.-4      	; 0x37c <uart0_puts+0x4>
 380:	8c b9       	out	0x0c, r24	; 12
 382:	81 91       	ld	r24, Z+
 384:	88 23       	and	r24, r24
 386:	d1 f7       	brne	.-12     	; 0x37c <uart0_puts+0x4>
 388:	5d 9b       	sbis	0x0b, 5	; 11
 38a:	fe cf       	rjmp	.-4      	; 0x388 <uart0_puts+0x10>
 38c:	8a e0       	ldi	r24, 0x0A	; 10
 38e:	8c b9       	out	0x0c, r24	; 12
 390:	5d 9b       	sbis	0x0b, 5	; 11
 392:	fe cf       	rjmp	.-4      	; 0x390 <uart0_puts+0x18>
 394:	8d e0       	ldi	r24, 0x0D	; 13
 396:	8c b9       	out	0x0c, r24	; 12
 398:	08 95       	ret

0000039a <main>:
 39a:	11 9a       	sbi	0x02, 1	; 2
 39c:	81 b3       	in	r24, 0x11	; 17
 39e:	80 6f       	ori	r24, 0xF0	; 240
 3a0:	81 bb       	out	0x11, r24	; 17
 3a2:	82 b3       	in	r24, 0x12	; 18
 3a4:	80 6f       	ori	r24, 0xF0	; 240
 3a6:	82 bb       	out	0x12, r24	; 18
 3a8:	0e 94 aa 01 	call	0x354	; 0x354 <uart0_init>
 3ac:	80 e0       	ldi	r24, 0x00	; 0
 3ae:	91 e0       	ldi	r25, 0x01	; 1
 3b0:	0e 94 bc 01 	call	0x378	; 0x378 <uart0_puts>
 3b4:	8d e1       	ldi	r24, 0x1D	; 29
 3b6:	91 e0       	ldi	r25, 0x01	; 1
 3b8:	0e 94 bc 01 	call	0x378	; 0x378 <uart0_puts>
 3bc:	81 e3       	ldi	r24, 0x31	; 49
 3be:	91 e0       	ldi	r25, 0x01	; 1
 3c0:	0e 94 bc 01 	call	0x378	; 0x378 <uart0_puts>
 3c4:	83 e4       	ldi	r24, 0x43	; 67
 3c6:	91 e0       	ldi	r25, 0x01	; 1
 3c8:	0e 94 bc 01 	call	0x378	; 0x378 <uart0_puts>
 3cc:	5f 9b       	sbis	0x0b, 7	; 11
 3ce:	fe cf       	rjmp	.-4      	; 0x3cc <main+0x32>
 3d0:	8c b1       	in	r24, 0x0c	; 12
 3d2:	82 33       	cpi	r24, 0x32	; 50
 3d4:	31 f0       	breq	.+12     	; 0x3e2 <main+0x48>
 3d6:	83 33       	cpi	r24, 0x33	; 51
 3d8:	31 f0       	breq	.+12     	; 0x3e6 <main+0x4c>
 3da:	81 33       	cpi	r24, 0x31	; 49
 3dc:	41 f4       	brne	.+16     	; 0x3ee <main+0x54>
 3de:	94 98       	cbi	0x12, 4	; 18
 3e0:	e5 cf       	rjmp	.-54     	; 0x3ac <main+0x12>
 3e2:	94 9a       	sbi	0x12, 4	; 18
 3e4:	e3 cf       	rjmp	.-58     	; 0x3ac <main+0x12>
 3e6:	82 b3       	in	r24, 0x12	; 18
 3e8:	80 58       	subi	r24, 0x80	; 128
 3ea:	82 bb       	out	0x12, r24	; 18
 3ec:	df cf       	rjmp	.-66     	; 0x3ac <main+0x12>
 3ee:	82 e6       	ldi	r24, 0x62	; 98
 3f0:	91 e0       	ldi	r25, 0x01	; 1
 3f2:	0e 94 bc 01 	call	0x378	; 0x378 <uart0_puts>
 3f6:	da cf       	rjmp	.-76     	; 0x3ac <main+0x12>

000003f8 <uart0_getchar>:
 3f8:	5f 9b       	sbis	0x0b, 7	; 11
 3fa:	fe cf       	rjmp	.-4      	; 0x3f8 <uart0_getchar>
 3fc:	8c b1       	in	r24, 0x0c	; 12
 3fe:	08 95       	ret

00000400 <_exit>:
 400:	f8 94       	cli

00000402 <__stop_program>:
 402:	ff cf       	rjmp	.-2      	; 0x402 <__stop_program>
