
proyecto11Bitmap.elf:     file format elf32-avr

Sections:
Idx Name          Size      VMA       LMA       File off  Algn
  0 .data         0000002e  00800100  00002658  000026cc  2**0
                  CONTENTS, ALLOC, LOAD, DATA
  1 .text         00002658  00000000  00000000  00000074  2**1
                  CONTENTS, ALLOC, LOAD, READONLY, CODE

Disassembly of section .text:

00000000 <__vectors>:
       0:	0c 94 46 10 	jmp	0x208c	; 0x208c <__ctors_end>
       4:	0c 94 5d 10 	jmp	0x20ba	; 0x20ba <__bad_interrupt>
       8:	0c 94 5d 10 	jmp	0x20ba	; 0x20ba <__bad_interrupt>
       c:	0c 94 5d 10 	jmp	0x20ba	; 0x20ba <__bad_interrupt>
      10:	0c 94 5d 10 	jmp	0x20ba	; 0x20ba <__bad_interrupt>
      14:	0c 94 5f 10 	jmp	0x20be	; 0x20be <__vector_5>
      18:	0c 94 91 10 	jmp	0x2122	; 0x2122 <__vector_6>
      1c:	0c 94 c3 10 	jmp	0x2186	; 0x2186 <__vector_7>
      20:	0c 94 f5 10 	jmp	0x21ea	; 0x21ea <__vector_8>
      24:	0c 94 5d 10 	jmp	0x20ba	; 0x20ba <__bad_interrupt>
      28:	0c 94 5d 10 	jmp	0x20ba	; 0x20ba <__bad_interrupt>
      2c:	0c 94 5d 10 	jmp	0x20ba	; 0x20ba <__bad_interrupt>
      30:	0c 94 5d 10 	jmp	0x20ba	; 0x20ba <__bad_interrupt>
      34:	0c 94 5d 10 	jmp	0x20ba	; 0x20ba <__bad_interrupt>
      38:	0c 94 5d 10 	jmp	0x20ba	; 0x20ba <__bad_interrupt>
      3c:	0c 94 5d 10 	jmp	0x20ba	; 0x20ba <__bad_interrupt>
      40:	0c 94 5d 10 	jmp	0x20ba	; 0x20ba <__bad_interrupt>
      44:	0c 94 5d 10 	jmp	0x20ba	; 0x20ba <__bad_interrupt>
      48:	0c 94 5d 10 	jmp	0x20ba	; 0x20ba <__bad_interrupt>
      4c:	0c 94 5d 10 	jmp	0x20ba	; 0x20ba <__bad_interrupt>
      50:	0c 94 5d 10 	jmp	0x20ba	; 0x20ba <__bad_interrupt>
      54:	0c 94 5d 10 	jmp	0x20ba	; 0x20ba <__bad_interrupt>
      58:	0c 94 5d 10 	jmp	0x20ba	; 0x20ba <__bad_interrupt>
      5c:	0c 94 5d 10 	jmp	0x20ba	; 0x20ba <__bad_interrupt>
      60:	0c 94 5d 10 	jmp	0x20ba	; 0x20ba <__bad_interrupt>
      64:	0c 94 5d 10 	jmp	0x20ba	; 0x20ba <__bad_interrupt>
      68:	0c 94 5d 10 	jmp	0x20ba	; 0x20ba <__bad_interrupt>
      6c:	0c 94 5d 10 	jmp	0x20ba	; 0x20ba <__bad_interrupt>
      70:	0c 94 5d 10 	jmp	0x20ba	; 0x20ba <__bad_interrupt>
      74:	0c 94 5d 10 	jmp	0x20ba	; 0x20ba <__bad_interrupt>
      78:	0c 94 5d 10 	jmp	0x20ba	; 0x20ba <__bad_interrupt>
      7c:	0c 94 5d 10 	jmp	0x20ba	; 0x20ba <__bad_interrupt>
      80:	0c 94 5d 10 	jmp	0x20ba	; 0x20ba <__bad_interrupt>
      84:	0c 94 5d 10 	jmp	0x20ba	; 0x20ba <__bad_interrupt>
      88:	0c 94 5d 10 	jmp	0x20ba	; 0x20ba <__bad_interrupt>

0000008c <mickey>:
	...
      a8:	00 00 00 01 00 00 00 00 00 00 00 00 00 00 00 00     ................
      b8:	00 00 00 02 40 00 00 00 00 00 00 00 00 00 00 00     ....@...........
      c8:	00 00 00 04 20 00 00 00 00 00 00 00 00 00 00 00     .... ...........
      d8:	00 00 00 08 10 00 00 00 00 00 00 00 00 00 00 00     ................
      e8:	00 00 00 10 08 00 00 00 f0 00 00 00 00 00 00 00     ................
      f8:	00 00 00 20 04 00 00 0f ff 00 00 00 00 00 00 00     ... ............
     108:	00 00 00 40 02 00 00 3f ff c0 00 00 00 00 00 00     ...@...?........
     118:	00 00 00 80 01 00 00 ff ff f0 00 00 00 00 00 00     ................
     128:	00 00 01 00 00 80 03 ff ff f8 00 00 00 00 00 00     ................
     138:	00 00 02 00 00 40 07 ff ff fc 00 00 00 00 00 00     .....@..........
     148:	00 00 04 00 00 20 1f ff ff fe 00 00 00 00 00 00     ..... ..........
     158:	03 f0 08 00 00 10 3f ff ff ff 00 00 00 00 00 00     ......?.........
     168:	0f ff 10 00 00 08 7f ff ff ff 00 00 00 00 00 00     ................
     178:	3f ff e0 00 00 04 ff ff ff ff 80 00 00 00 00 00     ?...............
     188:	ff ff e0 00 00 03 ff ff ff ff 80 00 00 00 00 01     ................
     198:	ff ff f8 00 00 03 ff ff ff ff c0 00 00 00 00 03     ................
     1a8:	ff ff fc 00 00 07 ff ff ff ff c0 00 00 00 00 07     ................
     1b8:	ff ff fe 00 00 0f ff ff ff ff c0 00 00 00 00 0f     ................
     1c8:	ff ff ff 00 00 0f ff ff ff ff c0 00 00 00 00 1f     ................
     1d8:	ff ff ff 80 00 1f ff ff ff ff e0 00 00 00 00 1f     ................
     1e8:	ff ff ff c0 00 1f ff ff ff ff e0 00 00 00 00 1f     ................
     1f8:	ff ff ff e0 00 3f ff ff ff ff e0 00 00 00 00 3f     .....?.........?
     208:	ff ff ff e0 00 3f ff ff ff ff e0 00 00 00 00 3f     .....?.........?
     218:	ff ff ff f0 00 7f ff ff ff ff e0 00 00 00 00 7f     ................
     228:	ff ff ff f0 00 7f ff ff ff ff e0 00 00 00 00 7f     ................
     238:	ff ff ff f0 00 7f ff ff ff ff e0 00 00 00 00 7f     ................
     248:	ff ff ff f8 00 ff ff ff ff ff e0 00 00 00 00 ff     ................
     258:	ff ff ff f8 00 ff ff ff ff ff c0 01 c0 00 00 ff     ................
     268:	ff ff ff f8 00 ff ff ff ff ff c0 1b f8 00 00 ff     ................
     278:	ff ff ff fc 00 ff ff ff ff ff c0 3b fc 00 00 ff     ...........;....
     288:	ff ff ff fc 01 ff ff ff ff ff c1 fb ff 00 00 ff     ................
     298:	ff ff ff fc 01 ff ff ff ff ff 83 fb ff 80 00 ff     ................
     2a8:	ff ff ff fc 01 ff ff ff ff ff 87 fb ff 80 00 ff     ................
     2b8:	ff ff ff fe 01 ff ff ff ff ff 87 f0 3f c0 00 ff     ............?...
     2c8:	ff ff ff fe 01 ff ff ff ff ff 1f c0 0f cf c0 ff     ................
     2d8:	ff ff ff fe 01 ff ff ff ff ff ff 80 07 ff fc ff     ................
     2e8:	ff ff ff fe 01 ff ff ff ff ff fe 00 03 ff fe ff     ................
     2f8:	ff ff ff fe 01 ff ff ff ff ff fc 00 01 ff ff ff     ................
     308:	ff ff ff fe 00 ff ff ff ff ff f8 00 01 fe 3f ff     ..............?.
     318:	ff ff ff fe 00 ff ff ff ff ff f0 00 00 f8 0f ff     ................
     328:	ff ff ff fe 00 ff ff ff ff ff e0 00 00 f0 07 ff     ................
     338:	ff ff ff fc 00 ff ff ff ff ff c0 00 00 70 07 ff     .............p..
     348:	ff ff ff fc 00 7f ff ff ff ff 80 00 00 60 09 ff     .............`..
     358:	ff ff ff fc 00 3f ff ff ff ff 80 00 00 00 10 ff     .....?..........
     368:	ff ff ff fc 00 3f ff ff ff ff 80 00 00 00 20 7f     .....?........ .
     378:	ff ff ff f8 00 1f ff ff ff ff 00 00 00 00 40 7f     ..............@.
     388:	ff ff ff f8 00 1f ff ff ff ff 00 00 e0 00 80 3f     ...............?
     398:	ff ff ff f0 00 07 ff ff ff ff 00 01 f0 01 00 1f     ................
     3a8:	ff ff ff f0 00 03 ff ff ff fe 80 03 18 02 00 1f     ................
     3b8:	ff ff ff f0 00 00 ff ff ff fc 40 02 18 04 00 1f     ..........@.....
     3c8:	ff ff ff e0 00 00 3f fd ff fc 20 0a 18 0f 00 1f     ......?... .....
     3d8:	ff ff ff c0 00 00 00 03 ff f8 10 08 0c 1b 80 0f     ................
     3e8:	ff ff ff c0 00 00 00 03 ff f8 08 18 0c 31 80 0f     .............1..
     3f8:	ff ff ff 00 00 00 00 07 ff f8 04 18 0c 70 80 0f     .............p..
     408:	ff ff fe 00 00 00 00 07 ff f0 02 18 0c f0 c0 07     ................
     418:	ff ff fc 00 00 1c 00 0f ff f0 01 10 0d 60 c0 07     .............`..
     428:	ff ff f8 00 00 1f 00 0f ff f0 00 90 06 60 c0 07     .............`..
     438:	fb ff f0 00 00 13 80 1f ff f0 00 70 04 e0 60 07     ...........p..`.
     448:	f8 1e 00 00 00 11 c0 1f ff f0 00 30 0c c0 60 07     ...........0..`.
     458:	fc 00 00 00 00 18 f0 1f ff f0 00 30 14 c0 60 03     ...........0..`.
     468:	fc 00 00 00 00 18 7c 1f ff f0 00 38 64 c0 60 03     ......|....8d.`.
     478:	fc 00 00 00 00 18 1f 3f ff f0 00 30 84 c0 60 03     .......?...0..`.
     488:	fc 00 00 00 00 18 0f 3f ff f0 00 23 0c c0 60 03     .......?...#..`.
     498:	fc 00 00 00 00 18 01 3f ff f0 00 03 0c 80 60 03     .......?......`.
     4a8:	fc 00 00 00 00 08 00 3f ff f0 00 1a 8d 80 60 03     .......?......`.
     4b8:	fc 00 00 00 00 00 00 00 00 00 00 00 00 00 00 00     ................
     4c8:	00 00 00 00 00 0c 00 7f ff f0 00 1b ad 70 60 03     .............p`.
     4d8:	fc 00 00 00 00 0c 00 7f ff f0 00 3b 9c f8 60 03     ...........;..`.
     4e8:	fc 00 00 00 00 06 00 7f ff f0 00 5b 98 f8 40 07     ...........[..@.
     4f8:	fc 00 00 00 00 06 00 7f ff f0 00 9b 84 fc c0 07     ................
     508:	fc 00 00 00 00 02 00 7f 83 f0 01 1b b2 fc c0 07     ................
     518:	fc 00 00 00 00 03 00 7c 00 f0 02 0b ff fc 80 07     .......|........
     528:	fc 00 00 00 00 01 00 78 00 30 04 7b 87 f8 80 0f     .......x.0.{....
     538:	fc 01 fe 00 00 01 80 70 00 00 09 e0 7e 5e 00 0f     .......p....~^..
     548:	fc ff fe 00 00 00 80 20 00 00 13 03 ff e7 00 0f     ....... ........
     558:	fc fc 04 00 00 00 80 00 00 00 26 0b ff f1 80 0f     ..........&.....
     568:	fc 00 0c 00 00 00 c0 00 00 00 40 1b ff f8 c0 1f     ..........@.....
     578:	fc 00 0c 00 00 00 e1 80 00 00 80 3b ff fc 40 1f     ...........;..@.
     588:	fc 00 18 00 00 00 71 80 00 01 00 3b ff fe 00 1f     ......q....;....
     598:	fc 00 30 00 00 00 31 80 00 02 00 7b ff ff 00 01     ..0...1....{....
     5a8:	fc 00 60 00 00 00 19 80 03 e4 00 7b ff ff 80 00     ..`........{....
     5b8:	fc 00 c0 00 00 00 1d 80 0f 88 00 7b ff ff 40 00     ...........{..@.
     5c8:	78 00 c0 00 00 00 0d 80 1c 10 00 3b ff ff 20 00     x..........;.. .
     5d8:	38 01 80 00 00 00 04 c0 39 a0 00 3b ff ff 10 00     8.......9..;....
     5e8:	10 07 00 00 00 00 00 c0 61 c0 00 1b ff fe 08 00     ........a.......
     5f8:	00 0e 00 00 00 00 00 c0 00 c0 00 0b ff fc 04 00     ................
     608:	0c 1c 00 00 00 00 00 60 01 60 00 03 ff f8 02 00     .......`.`......
     618:	0c 38 00 00 00 00 00 60 02 70 00 00 ff e0 01 00     .8.....`.p......
     628:	0c 70 00 00 00 00 00 30 04 38 00 00 00 00 00 f8     .p.....0.8......
     638:	0c e0 00 00 00 00 00 30 08 1c 00 00 00 00 00 4c     .......0.......L
     648:	1c 80 00 00 00 00 00 18 10 1e 00 00 00 00 00 e4     ................
     658:	18 00 00 00 00 00 00 18 20 0f 80 00 00 00 01 d6     ........ .......
     668:	18 00 00 00 00 00 00 0c 40 0f c0 00 00 00 03 08     ........@.......
     678:	38 00 00 00 00 00 00 06 80 07 f0 00 00 00 0e 04     8...............
     688:	30 00 00 00 00 00 00 07 00 07 fe 00 00 00 7c 02     0.............|.
     698:	60 00 00 00 00 00 00 03 80 07 cf c0 00 01 e0 01     `...............
     6a8:	c0 00 00 00 00 00 00 04 c0 83 c3 f8 00 1f 80 00     ................
     6b8:	80 00 00 00 00 00 00 08 e0 c3 c1 fb ff fc 00 01     ................
     6c8:	c0 00 00 00 00 00 00 10 70 63 e1 fb ff e0 80 03     ........pc......
     6d8:	20 00 00 00 00 00 00 20 1c 70 71 fb ff e1 80 0e      ...... .pq.....
     6e8:	10 00 00 00 00 00 00 40 07 30 b0 fb ff e3 00 18     .......@.0......
     6f8:	08 00 00 00 00 00 00 80 03 91 be 7b ff e3 00 70     ...........{...p
     708:	04 00 00 00 00 00 01 00 00 99 9e 3b ff e6 00 e0     ...........;....
     718:	02 00 00 00 00 00 02 00 00 18 80 1b ff fc 03 80     ................
     728:	01 00 00 00 00 00 04 00 00 0c c0 08 3f b8 1e 00     ............?...
     738:	00 80 00 00 00 00 08 00 00 06 c0 00 0f 10 78 00     ..............x.
     748:	00 40 00 00 00 00 10 00 00 06 60 00 04 71 c0 00     .@........`..q..
     758:	00 20 00 00 00 00 20 00 00 03 70 00 11 c2 00 00     . .... ...p.....
     768:	00 10 00 00 00 00 40 00 00 03 b8 00 7f 80 00 00     ......@.........
     778:	00 08 00 00 00 00 80 00 00 01 9c 00 ee 00 00 00     ................
     788:	00 04 00 00 00 01 00 00 00 01 cf fb fc 00 00 00     ................
     798:	00 02 00 00 00 02 00 00 00 00 f3 fa f0 00 00 00     ................
     7a8:	00 01 00 00 00 04 00 00 00 00 78 03 e0 00 00 00     ..........x.....
     7b8:	00 00 80 00 00 08 00 00 00 00 3f 1b 80 00 00 00     ..........?.....
     7c8:	00 00 40 00 00 10 00 00 00 00 0f fa 00 00 00 00     ..@.............
     7d8:	00 00 20 00 00 20 00 00 00 00 00 00 00 00 00 00     .. .. ..........
     7e8:	00 00 10 00 00 40 00 00 00 00 00 00 00 00 00 00     .....@..........
     7f8:	00 00 08 00 00 80 00 00 00 00 00 00 00 00 00 00     ................
     808:	00 00 04 00 01 00 00 00 00 00 00 00 00 00 00 00     ................
     818:	00 00 02 00 02 00 00 00 00 00 00 00 00 00 00 00     ................
     828:	00 00 01 00 04 00 00 00 00 00 00 00 00 00 00 00     ................
     838:	00 00 00 80 08 00 00 00 00 00 00 00 00 00 00 00     ................
     848:	00 00 00 40 00 00 00 00 00 00 00 00 00 00 00 00     ...@............
     858:	00 00 00 20 00 00 00 00 00 00 00 00 00 00 00 00     ... ............
	...

0000088c <android>:
     88c:	08 00 00 00 00 06 00 00 00 00 0c 00 00 00 00 00     ................
     89c:	04 00 00 00 00 06 00 00 00 00 1c 00 00 00 00 01     ................
     8ac:	02 00 00 00 00 07 00 00 00 00 1c 00 00 00 00 02     ................
     8bc:	01 00 00 00 00 03 00 00 00 00 38 00 00 00 00 04     ..........8.....
     8cc:	00 80 00 00 00 03 80 00 00 00 38 00 00 00 00 08     ..........8.....
     8dc:	00 40 00 00 00 01 80 00 00 00 70 00 00 00 00 10     .@........p.....
     8ec:	00 20 00 00 00 01 c0 00 00 00 70 00 00 00 00 20     . ........p.... 
     8fc:	00 10 00 00 00 00 c0 00 00 00 e0 00 00 00 00 40     ...............@
     90c:	00 08 00 00 00 00 e0 3b ff 80 e0 00 00 00 00 80     .......;........
     91c:	00 04 00 00 00 00 e3 fb ff f0 c0 00 00 00 01 00     ................
     92c:	00 02 00 00 00 00 7f fb ff ff c0 00 00 00 02 00     ................
     93c:	00 01 00 00 00 00 7f fb ff ff 80 00 00 00 04 00     ................
     94c:	00 00 80 00 00 00 ff fb ff ff c0 00 00 00 08 00     ................
     95c:	00 00 40 00 00 01 ff fb ff ff f0 00 00 00 10 00     ..@.............
     96c:	00 00 20 00 00 03 ff fb ff ff f8 00 00 00 20 00     .. ........... .
     97c:	00 00 10 00 00 0f ff fb ff ff fc 00 00 00 40 00     ..............@.
     98c:	00 00 08 00 00 1f ff fb ff ff ff 00 00 00 80 00     ................
     99c:	00 00 04 00 00 3f ff fb ff ff ff 80 00 01 00 00     .....?..........
     9ac:	00 00 02 00 00 7f ff fb ff ff ff 80 00 02 00 00     ................
     9bc:	00 00 01 00 00 ff ff fb ff ff ff c0 00 04 00 00     ................
     9cc:	00 00 00 80 00 ff ff fb ff ff ff e0 00 08 00 00     ................
     9dc:	00 00 00 40 01 ff ff fb ff ff ff f0 00 10 00 00     ...@............
     9ec:	00 00 00 20 03 ff cf fb ff fe 7f f0 00 20 00 00     ... ......... ..
     9fc:	00 00 00 10 03 ff 87 fb ff fc 3f f8 00 40 00 00     ..........?..@..
     a0c:	00 00 00 08 07 ff 87 fb ff fc 3f fc 00 80 00 00     ..........?.....
     a1c:	00 00 00 04 07 ff 87 fb ff fc 3f fc 01 00 00 00     ..........?.....
     a2c:	00 00 00 02 0f ff cf fb ff fe 7f fe 02 00 00 00     ................
     a3c:	00 00 00 01 0f ff ff fb ff ff ff fe 04 00 00 00     ................
     a4c:	00 00 00 00 9f ff ff fb ff ff ff fe 08 00 00 00     ................
     a5c:	00 00 00 00 5f ff ff fb ff ff ff ff 10 00 00 00     ...._...........
     a6c:	00 00 00 00 3f ff ff fb ff ff ff ff 20 00 00 00     ....?....... ...
     a7c:	00 00 00 00 3f ff ff fb ff ff ff ff 40 00 00 00     ....?.......@...
     a8c:	00 00 00 00 3f ff ff fb ff ff ff ff 80 00 00 00     ....?...........
     a9c:	00 00 00 00 3f ff ff fb ff ff ff ff 80 00 00 00     ....?...........
     aac:	00 00 00 00 3f ff ff fb ff ff ff ff 80 00 00 00     ....?...........
     abc:	00 00 00 00 3f ff ff fb ff ff ff ff 80 00 00 00     ....?...........
     acc:	00 00 00 00 7f ff ff fb ff ff ff ff 80 00 00 00     ................
     adc:	00 00 00 00 7f ff ff fb ff ff ff ff 80 00 00 00     ................
     aec:	00 00 00 00 7f ff ff fb ff ff ff ff 80 00 00 00     ................
     afc:	00 00 00 00 7f ff ff fb ff ff ff ff 80 00 00 00     ................
     b0c:	00 00 00 00 7f ff ff fb ff ff ff ff 80 00 00 00     ................
     b1c:	00 00 01 c0 00 08 00 00 00 00 00 80 00 70 00 00     .............p..
     b2c:	00 00 0f f0 00 04 00 00 00 00 01 00 01 fe 00 00     ................
     b3c:	00 00 1f f8 7f ff ff fb ff ff ff ff 87 fe 00 00     ................
     b4c:	00 00 3f fc 7f ff ff fb ff ff ff ff 87 ff 80 00     ..?.............
     b5c:	00 00 3f fe 7f ff ff fb ff ff ff ff 8f ff 80 00     ..?.............
     b6c:	00 00 7f fe 7f ff ff fb ff ff ff ff 8f ff 80 00     ................
     b7c:	00 00 7f fe 7f ff ff fb ff ff ff ff 9f ff 80 00     ................
     b8c:	00 00 7f fe 7f ff ff fb ff ff ff ff 9f ff 80 00     ................
     b9c:	00 00 7f fe 7f ff ff fb ff ff ff ff 9f ff 80 00     ................
     bac:	00 00 7f fe 7f ff ff fb ff ff ff ff 9f ff 80 00     ................
     bbc:	00 00 7f fe 7f ff ff fb ff ff ff ff 9f ff 80 00     ................
     bcc:	00 00 7f fe 7f ff ff fb ff ff ff ff 9f ff 80 00     ................
     bdc:	00 00 7f fe 7f ff ff fb ff ff ff ff 9f ff 80 00     ................
     bec:	00 00 7f fe 7f ff ff fb ff ff ff ff 9f ff 80 00     ................
     bfc:	00 00 7f fe 7f ff ff fb ff ff ff ff 9f ff 80 00     ................
     c0c:	00 00 7f fe 7f ff ff fb ff ff ff ff 9f ff 80 00     ................
     c1c:	00 00 7f fe 7f ff ff fb ff ff ff ff 9f ff 80 00     ................
     c2c:	00 00 7f fe 7f ff ff fb ff ff ff ff 9f ff 80 00     ................
     c3c:	00 00 7f fe 7f ff ff fb ff ff ff ff 9f ff 80 00     ................
     c4c:	00 00 7f fe 7f ff ff fb ff ff ff ff 9f ff 80 00     ................
     c5c:	00 00 7f fe 7f ff ff fb ff ff ff ff 9f ff 80 00     ................
     c6c:	00 00 7f fe 7f ff ff fb ff ff ff ff 9f ff 80 00     ................
     c7c:	00 00 7f fe 7f ff ff fb ff ff ff ff 9f ff 80 00     ................
	...
     c9c:	00 00 7f fe 7f ff ff fb ff ff ff ff 9f ff 80 00     ................
     cac:	00 00 7f fe 7f ff ff fb ff ff ff ff 9f ff 80 00     ................
     cbc:	00 00 7f fe 7f ff ff fb ff ff ff ff 9f ff 80 00     ................
     ccc:	00 00 7f fe 7f ff ff fb ff ff ff ff 9f ff 80 00     ................
     cdc:	00 00 7f fe 7f ff ff fb ff ff ff ff 9f ff 80 00     ................
     cec:	00 00 7f fe 7f ff ff fb ff ff ff ff 9f ff 80 00     ................
     cfc:	00 00 7f fe 7f ff ff fb ff ff ff ff 9f ff 80 00     ................
     d0c:	00 00 7f fe 7f ff ff fb ff ff ff ff 9f ff 80 00     ................
     d1c:	00 00 7f fe 7f ff ff fb ff ff ff ff 9f ff 80 00     ................
     d2c:	00 00 7f fe 7f ff ff fb ff ff ff ff 9f ff 80 00     ................
     d3c:	00 00 7f fe 7f ff ff fb ff ff ff ff 9f ff 80 00     ................
     d4c:	00 00 7f fe 7f ff ff fb ff ff ff ff 9f ff 80 00     ................
     d5c:	00 00 7f fe 7f ff ff fb ff ff ff ff 9f ff 80 00     ................
     d6c:	00 00 7f fe 7f ff ff fb ff ff ff ff 9f ff 80 00     ................
     d7c:	00 00 7f fe 7f ff ff fb ff ff ff ff 9f ff 80 00     ................
     d8c:	00 00 7f fe 7f ff ff fb ff ff ff ff 9f ff 80 00     ................
     d9c:	00 00 7f fe 7f ff ff fb ff ff ff ff 9f ff 80 00     ................
     dac:	00 00 7f fe 7f ff ff fb ff ff ff ff 9f ff 80 00     ................
     dbc:	00 00 7f fe 7f ff ff fb ff ff ff ff 9f ff 80 00     ................
     dcc:	00 00 7f fe 7f ff ff fb ff ff ff ff 9f ff 80 00     ................
     ddc:	00 00 7f fe 7f ff ff fb ff ff ff ff 8f ff 80 00     ................
     dec:	00 00 7f fe 7f ff ff fb ff ff ff ff 8f ff 80 00     ................
     dfc:	00 00 3f fe 7f ff ff fb ff ff ff ff 8f ff 80 00     ..?.............
     e0c:	00 00 3f fc 7f ff ff fb ff ff ff ff 87 ff 00 00     ..?.............
     e1c:	00 00 1f f8 7f ff ff fb ff ff ff ff 87 fe 00 00     ................
     e2c:	00 00 07 f0 7f ff ff fb ff ff ff ff 81 fc 00 00     ................
     e3c:	00 00 00 00 7f ff ff fb ff ff ff ff 80 00 00 00     ................
     e4c:	00 00 00 00 7f ff ff fb ff ff ff ff 80 00 00 00     ................
     e5c:	00 00 00 00 7f ff ff fb ff ff ff ff 80 00 00 00     ................
     e6c:	00 00 00 00 7f ff ff fb ff ff ff ff 80 00 00 00     ................
     e7c:	00 00 00 00 7f ff ff fb ff ff ff ff c0 00 00 00     ................
     e8c:	00 00 00 00 3f ff ff fb ff ff ff ff a0 00 00 00     ....?...........
     e9c:	00 00 00 00 7f ff ff fb ff ff ff ff 90 00 00 00     ................
     eac:	00 00 00 00 bf ff ff fb ff ff ff ff 88 00 00 00     ................
     ebc:	00 00 00 01 1f ff ff fb ff ff ff ff 04 00 00 00     ................
     ecc:	00 00 00 02 1f ff ff fb ff ff ff fe 02 00 00 00     ................
     edc:	00 00 00 04 0f ff ff fb ff ff ff fc 01 00 00 00     ................
     eec:	00 00 00 08 07 ff ff fb ff ff ff f8 00 80 00 00     ................
     efc:	00 00 00 10 00 ff ff fb ff ff ff e0 00 40 00 00     .............@..
     f0c:	00 00 00 20 00 03 ff f8 03 ff f8 00 00 20 00 00     ... ......... ..
     f1c:	00 00 00 40 00 03 ff f8 03 ff f8 00 00 10 00 00     ...@............
     f2c:	00 00 00 80 00 03 ff f8 03 ff f8 00 00 08 00 00     ................
     f3c:	00 00 01 00 00 03 ff f8 03 ff f8 00 00 04 00 00     ................
     f4c:	00 00 02 00 00 03 ff f8 03 ff f8 00 00 02 00 00     ................
     f5c:	00 00 04 00 00 03 ff f8 03 ff f8 00 00 01 00 00     ................
     f6c:	00 00 08 00 00 03 ff f8 03 ff f8 00 00 00 80 00     ................
     f7c:	00 00 10 00 00 03 ff f8 03 ff f8 00 00 00 40 00     ..............@.
     f8c:	00 00 20 00 00 03 ff f8 03 ff f8 00 00 00 20 00     .. ........... .
     f9c:	00 00 40 00 00 03 ff f8 03 ff f8 00 00 00 10 00     ..@.............
     fac:	00 00 80 00 00 03 ff f8 03 ff f8 00 00 00 08 00     ................
     fbc:	00 01 00 00 00 03 ff f8 03 ff f8 00 00 00 04 00     ................
     fcc:	00 02 00 00 00 03 ff f8 03 ff f8 00 00 00 02 00     ................
     fdc:	00 04 00 00 00 03 ff f8 03 ff f8 00 00 00 01 00     ................
     fec:	00 08 00 00 00 03 ff f8 03 ff f8 00 00 00 00 80     ................
     ffc:	00 10 00 00 00 03 ff f8 03 ff f8 00 00 00 00 40     ...............@
    100c:	00 20 00 00 00 03 ff f8 03 ff f8 00 00 00 00 20     . ............. 
    101c:	00 40 00 00 00 03 ff f8 03 ff f0 00 00 00 00 10     .@..............
    102c:	00 80 00 00 00 03 ff f8 03 ff f0 00 00 00 00 08     ................
    103c:	01 00 00 00 00 01 ff f0 03 ff f0 00 00 00 00 04     ................
    104c:	02 00 00 00 00 01 ff f0 01 ff f0 00 00 00 00 02     ................
    105c:	04 00 00 00 00 00 ff f0 01 ff e0 00 00 00 00 00     ................
    106c:	00 00 00 00 00 00 ff e0 00 ff c0 00 00 00 00 00     ................
    107c:	00 00 00 00 00 00 7f c0 00 7f c0 00 00 00 00 00     ................

0000108c <youtube>:
    108c:	00 7f ff ff ff ff ff ff ff ff ff ff ff ff fe 01     ................
    109c:	00 ff ff ff ff ff ff ff ff ff ff ff ff ff ff 82     ................
    10ac:	23 ff ff ff ff ff ff ff ff ff ff ff ff ff ff e4     #...............
    10bc:	1f ff ff ff ff ff ff ef ff ff ff ff ff ff ff f8     ................
    10cc:	1f ff ff ff ff ff ff ef ff ff ff ff ff ff ff f8     ................
    10dc:	3f ff ff ff ff ff ff ef ff ff ff ff ff ff ff fc     ?...............
    10ec:	3f ff ff ff ff ff ff ef ff ff ff ff ff ff ff fe     ?...............
    10fc:	3f ff ff ff ff ff ff ef ff ff ff ff ff ff ff fe     ?...............
    110c:	7f ff ff ff ff ff ff ef ff ff ff ff ff ff ff ff     ................
    111c:	ff ff ff ff ff ff ff ef ff ff ff ff ff ff ff ff     ................
    112c:	ff ff ff ff ff ff ff ef ff ff ff ff ff ff ff ff     ................
    113c:	ff ff ff ff ff ff ff ef ff ff ff ff ff ff ff ff     ................
    114c:	ff ff ff ff c3 fe 1f ef ff ff ff ff ff ff ff ff     ................
    115c:	ff ff ff ff c3 fe 3f ef ff ff ff ff ff ff ff ff     ......?.........
    116c:	ff ff ff ff e3 fc 3f ef ff ff ff ff ff ff ff ff     ......?.........
    117c:	ff ff ff ff e1 fc 3f ef ff ff ff ff ff ff ff ff     ......?.........
    118c:	ff ff ff ff e1 fc 3f ef ff ff ff ff ff ff ff ff     ......?.........
    119c:	ff ff ff ff e1 fc 3f ef ff ff ff ff ff ff ff ff     ......?.........
    11ac:	ff ff ff ff e0 f8 7f ef ff ff ff ff ff ff ff ff     ................
    11bc:	ff ff ff ff f0 f8 7f ef ff ff ff ff ff ff ff ff     ................
    11cc:	ff ff ff ff f0 f8 7f ef ff ff ff ff ff ff ff ff     ................
    11dc:	ff ff ff ff f8 78 ff ef ff ff ff ff ff ff ff ff     .....x..........
    11ec:	ff ff ff ff f8 78 ff e1 ff c0 f8 1f ff ff ff ff     .....x..........
    11fc:	ff ff ff ff f8 70 ff 00 7f c0 f8 1f ff ff ff ff     .....p..........
    120c:	ff ff ff ff f8 30 fe 00 1f c0 f8 1f ff ff ff ff     .....0..........
    121c:	ff ff ff ff fc 31 fc 0c 1f c0 f8 1f ff ff ff ff     .....1..........
    122c:	ff ff ff ff fc 21 fc 0e 0f c0 f8 1f ff ff ff ff     .....!..........
    123c:	ff ff ff ff fc 21 fc 2e 0f c0 f8 1f ff ff ff ff     .....!..........
    124c:	ff ff ff ff fc 01 f8 2e 07 c0 f8 1f ff ff ff ff     ................
    125c:	ff ff ff ff fe 01 f8 2e 07 c0 f8 1f ff ff ff ff     ................
    126c:	ff ff ff ff fe 03 f8 2e 07 c0 f8 1f ff ff ff ff     ................
    127c:	ff ff ff ff ff 03 f8 2e 07 c0 f8 1f ff ff ff ff     ................
    128c:	ff ff ff ff ff 03 f8 2e 07 c0 f8 1f ff ff ff ff     ................
    129c:	ff ff ff ff ff 07 f8 2e 07 c0 f8 1f ff ff ff ff     ................
    12ac:	ff ff ff ff ff 07 f8 2e 07 c0 f8 1f ff ff ff ff     ................
    12bc:	ff ff ff ff ff 07 f8 2e 07 c0 f8 1f ff ff ff ff     ................
    12cc:	ff ff ff ff ff 07 f8 2e 07 c0 f8 1f ff ff ff ff     ................
    12dc:	ff ff ff ff ff 07 f8 2e 07 c0 f8 3f ff ff ff ff     ...........?....
    12ec:	ff ff ff ff ff 07 f8 2e 07 c0 f8 5f ff ff ff ff     ..........._....
    12fc:	ff ff ff ff ff 07 f8 2e 07 c0 f8 9f ff ff ff ff     ................
    130c:	ff ff ff ff ff 07 f8 2e 07 c0 f9 1f ff ff ff ff     ................
    131c:	ff ff ff ff ff 87 f8 2e 07 c0 fa 1f ff ff ff ff     ................
    132c:	ff ff ff ff ff 47 f8 2e 07 c0 fc 1f ff ff ff ff     .....G..........
    133c:	ff ff ff ff ff 27 f8 2e 07 c0 f8 1f ff ff ff ff     .....'..........
    134c:	ff ff ff ff ff 17 f8 2e 07 c0 f8 1f ff ff ff ff     ................
    135c:	ff ff ff ff ff 0f f8 2e 07 c0 f8 1f ff ff ff ff     ................
    136c:	ff ff ff ff ff 07 f8 0e 0f c0 78 1f ff ff ff ff     ..........x.....
    137c:	ff ff ff ff ff 07 fc 0e 0f c0 f0 1f ff ff ff ff     ................
    138c:	ff ff ff ff ff 07 fc 0c 1f e1 00 1f ff ff ff ff     ................
    139c:	ff ff ff ff ff 07 fe 00 1f e2 38 1f ff ff ff ff     ..........8.....
    13ac:	ff ff ff ff ff 07 ff 00 7f f4 78 1f ff ff ff ff     ..........x.....
    13bc:	ff ff ff ff ff ff ff c0 ff f8 ff ff ff ff ff ff     ................
    13cc:	ff ff ff ff ff ff ff ef ff ff ff ff ff ff ff ff     ................
    13dc:	ff ff ff ff ff ff ff ef ff ff ff ff ff ff ff ff     ................
    13ec:	ff ff ff fe 00 00 04 00 00 40 00 00 7f ff ff ff     .........@......
    13fc:	ff ff ff f8 00 00 02 00 00 80 00 00 0f ff ff ff     ................
    140c:	ff ff ff c0 00 00 01 00 01 00 00 00 01 ff ff ff     ................
    141c:	ff ff ff 00 00 00 00 80 02 00 00 00 00 7f ff ff     ................
    142c:	ff ff fe 00 00 00 00 40 04 00 00 00 00 7f ff ff     .......@........
    143c:	ff ff fc 00 00 00 00 20 08 00 00 00 00 3f ff ff     ....... .....?..
    144c:	ff ff f8 00 00 00 00 00 10 00 00 00 00 0f ff ff     ................
    145c:	ff ff f0 00 00 00 00 08 20 00 00 00 00 0f ff ff     ........ .......
    146c:	ff ff f0 00 00 00 00 04 c0 00 00 00 00 07 ff ff     ................
    147c:	ff ff e0 00 00 00 00 03 00 00 00 00 00 07 ff ff     ................
    148c:	ff ff e0 3f ff f8 00 02 1f 80 00 00 00 03 ff ff     ...?............
    149c:	ff ff c0 3f ff f8 00 05 1f 80 00 00 00 03 ff ff     ...?............
	...
    14b8:	00 00 00 1f ff ff c0 7f ff f8 00 00 5f 80 00 00     ............_...
    14c8:	00 01 ff ff ff ff c0 3f ff f8 00 20 3f 80 00 00     .......?... ?...
    14d8:	00 01 ff ff ff ff c0 7f ff f8 00 40 1f 80 00 00     ...........@....
    14e8:	00 01 ff ff ff ff c0 3f ff f8 00 80 1f 80 00 00     .......?........
    14f8:	00 01 ff ff ff ff c0 01 fc 00 01 00 1f 80 00 00     ................
    1508:	00 01 ff ff ff ff c0 01 fc 00 02 00 1f 80 00 00     ................
    1518:	00 01 ff ff ff ff c0 01 fc 07 f4 ec 1f 8f c0 0f     ................
    1528:	e0 01 ff ff ff ff 80 01 fc 07 f8 ec 1f 9f e0 1f     ................
    1538:	f8 01 ff ff ff ff 80 01 fc 07 f0 ec 1f ff e0 3f     ...............?
    1548:	fc 01 ff ff ff ff 80 01 fc 07 f0 ec 1f bf f0 7f     ................
    1558:	fe 01 ff ff ff ff 80 01 fc 07 f0 ec 1f ff f0 7f     ................
    1568:	ff 01 ff ff ff ff 80 01 fc 07 f0 ec 1f ff f0 ff     ................
    1578:	ff 01 ff ff ff ff 80 01 fc 07 f0 ec 1f ff f0 fe     ................
    1588:	3f 01 ff ff ff ff 80 01 fc 07 f0 ec 1f ef f0 fe     ?...............
    1598:	3f 01 ff ff ff ff 80 01 fc 07 f0 ec 1f c7 f0 fc     ?...............
    15a8:	3f 01 ff ff ff ff 80 01 fc 0f f0 ec 1f 87 f0 fc     ?...............
    15b8:	3f 01 ff ff ff ff 80 01 fc 17 f0 ec 1f 87 f1 fc     ?...............
    15c8:	3f 01 ff ff ff ff 80 01 fc 27 f0 ec 1f 87 f1 fc     ?........'......
    15d8:	3f 81 ff ff ff ff 80 01 fc 47 f0 ec 1f 87 f1 fc     ?........G......
    15e8:	3f 81 ff ff ff ff 80 01 fc 87 f0 ec 1f 87 f9 ff     ?...............
    15f8:	ff 81 ff ff ff ff 80 01 fd 07 f0 ec 1f 87 f5 ff     ................
    1608:	ff 81 ff ff ff ff 80 01 fe 07 f0 ec 1f 87 f3 ff     ................
    1618:	ff 81 ff ff ff ff 80 01 fc 07 f0 ec 1f 87 f1 ff     ................
    1628:	ff 81 ff ff ff ff 80 01 fc 07 f0 ec 1f 87 f1 fc     ................
    1638:	00 01 ff ff ff ff 80 01 fc 07 f0 ec 1f 87 f1 fc     ................
    1648:	00 01 ff ff ff ff 80 01 fc 07 f0 ec 1f 87 f1 fc     ................
    1658:	00 01 ff ff ff ff 80 01 fc 07 f0 ec 1f 87 f1 fc     ................
    1668:	3f 81 ff ff ff ff 80 01 fc 07 f0 ec 1f 87 f1 fc     ?...............
    1678:	3f 81 ff ff ff ff 80 01 fc 07 f0 ec 1f 87 f1 fc     ?...............
    1688:	3f 81 ff ff ff ff 80 03 fc 07 f0 ec 1f 87 f0 fe     ?...............
    1698:	3f 81 ff ff ff ff c0 05 fc 07 f0 ec 1f c7 f0 fd     ?...............
    16a8:	3f 81 ff ff ff ff c0 09 fc 07 f9 ec 1f ff f0 fe     ?...............
    16b8:	bf 01 ff ff ff ff c0 11 fc 07 ff ec 1f ff f0 fe     ................
    16c8:	7f 01 ff ff ff ff c0 21 fc 07 ff ec 1f ff f0 fe     .......!........
    16d8:	7f 01 ff ff ff ff c0 41 fc 07 ff ec 1f ff f0 7f     .......A........
    16e8:	ff 01 ff ff ff ff c0 81 fc 03 ff ec 1f 9f e0 3f     ...............?
    16f8:	fe 01 ff ff ff ff c1 01 fc 03 fc ec 1f 9f e0 3f     ...............?
    1708:	fc 01 ff ff ff ff c2 00 fc 01 f8 ec 1f 8f c0 0f     ................
    1718:	fa 01 ff ff ff ff c4 00 00 00 60 00 00 03 00 01     ..........`.....
    1728:	c1 03 ff ff ff ff e8 00 00 00 00 00 00 00 00 00     ................
    1738:	01 03 ff ff ff ff f0 00 00 00 00 00 00 00 00 00     ................
    1748:	00 87 ff ff ff ff f0 00 00 00 00 00 00 00 00 00     ................
    1758:	00 47 ff ff ff ff f8 00 00 00 00 00 00 00 00 00     .G..............
    1768:	00 2f ff ff ff ff f8 00 00 00 00 00 00 00 00 00     ./..............
    1778:	00 1f ff ff ff ff fc 00 00 00 00 00 00 00 00 00     ................
    1788:	00 3f ff ff ff ff ff 00 00 00 00 00 00 00 00 00     .?..............
    1798:	00 7f ff ff ff ff ff 00 00 00 00 00 00 00 00 00     ................
    17a8:	00 ff ff ff ff ff ff e0 00 00 00 00 00 00 00 00     ................
    17b8:	03 ff ff ff ff ff ff f0 00 00 00 00 00 00 00 00     ................
    17c8:	0f ff ff ff ff ff ff ff ff 00 00 00 00 00 00 7f     ................
    17d8:	ff ff ff ff ff ff ff ff ff ff ff ef ff ff ff ff     ................
    17e8:	ff ff ff ff ff ff ff ff ff ff ff ef ff ff ff ff     ................
    17f8:	ff ff ff ff 7f ff ff ff ff ff ff ef ff ff ff ff     ................
    1808:	ff ff ff ff 7f ff ff ff ff ff ff ef ff ff ff ff     ................
    1818:	ff ff ff fe 3f ff ff ff ff ff ff ef ff ff ff ff     ....?...........
    1828:	ff ff ff fe 3f ff ff ff ff ff ff ef ff ff ff ff     ....?...........
    1838:	ff ff ff fe 1f ff ff ff ff ff ff ff ff ff ff ff     ................
    1848:	ff ff ff fc 2f ff ff ff ff ff ff ff ff ff ff ff     ..../...........
    1858:	ff ff ff f8 07 ff ff ff ff ff ff ff ff ff ff ff     ................
    1868:	ff ff ff f0 03 ff ff ff ff ff ff ff ff ff ff ff     ................
    1878:	ff ff ff e0 00 ff ff ff ff ff ff ff ff ff ff ff     ................
    1888:	ff ff ff 00                                         ....

0000188c <pokemon>:
	...
    189c:	20 00 00 00 00 00 00 00 00 00 00 00 00 00 00 00      ...............
    18ac:	10 00 00 00 00 00 00 00 00 00 00 00 00 00 00 00     ................
    18bc:	08 00 00 00 00 00 00 00 00 00 00 00 00 00 00 08     ................
    18cc:	04 00 00 00 00 00 00 00 00 00 00 00 00 00 00 10     ................
    18dc:	02 00 00 00 00 00 00 00 00 00 00 00 3e 00 00 20     ............>.. 
    18ec:	01 00 00 00 00 00 00 00 00 00 00 07 70 00 00 40     ............p..@
    18fc:	00 80 00 00 00 00 00 00 00 00 00 38 c0 00 00 80     ...........8....
    190c:	00 40 00 00 00 00 00 00 00 00 01 c3 00 00 01 00     .@..............
    191c:	00 20 00 00 00 00 00 00 00 00 0e 1c 00 00 02 00     . ..............
    192c:	00 10 00 00 00 00 00 00 00 00 30 78 00 00 04 00     ..........0x....
    193c:	00 08 00 00 00 00 00 00 00 00 c0 90 00 00 08 00     ................
    194c:	00 04 00 00 00 00 00 00 00 01 03 20 00 00 10 00     ........... ....
    195c:	00 02 00 00 00 00 00 00 00 06 0c 40 00 00 20 00     ...........@.. .
    196c:	00 01 00 00 00 00 00 00 00 08 10 40 00 00 40 00     ...........@..@.
    197c:	00 00 80 00 00 00 00 00 00 30 60 80 00 00 80 00     .........0`.....
    198c:	00 00 40 00 00 00 00 00 00 40 81 00 00 01 00 00     ..@......@......
    199c:	00 00 20 00 00 00 00 00 00 83 01 01 00 02 00 00     .. .............
    19ac:	00 00 10 00 00 00 00 00 01 06 02 00 e0 04 00 00     ................
    19bc:	00 00 08 00 00 00 00 00 02 08 04 00 98 08 00 00     ................
    19cc:	00 ff e4 00 00 00 ff c0 04 10 04 00 44 10 00 00     ............D...
    19dc:	00 1f 1f 00 00 0f 00 18 08 20 00 00 23 20 00 00     ......... ..# ..
    19ec:	00 06 61 c0 00 70 00 03 90 40 08 00 11 c0 00 00     ..a..p...@......
    19fc:	00 01 0c 70 01 80 00 00 70 80 08 00 10 c0 00 00     ...p....p.......
    1a0c:	00 00 83 2c 02 00 00 00 21 00 08 00 09 20 00 00     ...,....!.... ..
    1a1c:	00 00 40 d3 0c 00 00 00 41 00 08 00 06 10 00 00     ..@.....A.......
    1a2c:	00 00 20 38 90 00 00 00 42 00 08 00 04 08 00 00     .. 8....B.......
    1a3c:	00 00 10 1c 60 00 00 00 42 00 06 00 0a 04 00 00     ....`...B.......
    1a4c:	00 00 08 06 20 00 00 00 42 00 01 80 12 02 00 00     .... ...B.......
    1a5c:	00 00 04 05 40 00 00 00 41 80 00 60 21 01 00 00     ....@...A..`!...
    1a6c:	00 00 04 02 80 00 00 00 20 3f ff f0 41 00 80 00     ........ ?..A...
    1a7c:	00 00 04 02 c0 00 00 78 18 07 c0 08 80 80 80 00     .......x........
    1a8c:	00 00 04 02 20 00 00 ca 07 f0 01 e9 00 80 40 00     .... .........@.
    1a9c:	00 00 04 03 10 00 00 8a 00 40 01 26 00 40 20 00     .........@.&.@ .
    1aac:	00 00 08 05 08 00 00 ca 00 40 02 ac 00 40 20 00     .........@...@ .
    1abc:	00 00 18 09 04 00 00 fa 00 20 02 58 00 20 10 00     ......... .X. ..
    1acc:	00 00 10 30 02 00 00 7a 00 20 01 39 80 20 10 00     ...0...z. .9. ..
    1adc:	00 00 21 fe 3d 00 00 78 00 20 00 e1 60 20 08 00     ..!.=..x. ..` ..
    1aec:	00 00 5e 02 76 80 00 10 7c 20 00 80 98 10 08 00     ..^.v...| ......
    1afc:	00 00 60 02 72 40 00 00 82 10 01 00 86 10 04 00     ..`.r@..........
    1b0c:	00 00 c0 02 7e 24 00 31 01 10 02 00 41 10 04 00     ....~$.1....A...
    1b1c:	00 00 8c 02 7e 1c 00 12 00 90 04 00 40 c0 02 00     ....~.......@...
    1b2c:	00 00 92 02 3c 08 07 f2 00 90 08 00 20 68 02 00     ....<....... h..
    1b3c:	00 00 82 02 3c 04 78 22 00 10 10 00 20 18 02 00     ....<.x".... ...
    1b4c:	00 00 82 02 00 07 00 02 00 48 20 00 20 08 01 00     .........H . ...
    1b5c:	00 00 64 04 00 19 00 12 00 88 40 00 10 00 01 00     ..d.......@.....
    1b6c:	00 00 10 07 c4 60 80 12 00 88 80 00 10 00 01 00     .....`..........
    1b7c:	00 00 00 04 27 80 5e 31 01 09 00 00 00 00 00 00     ....'.^1........
    1b8c:	00 00 00 04 10 80 60 10 83 0a 00 00 08 00 00 80     ......`.........
    1b9c:	00 00 07 84 10 40 90 00 7c 0c 00 00 08 00 00 80     .....@..|.......
    1bac:	00 00 70 38 08 41 08 20 00 08 00 00 08 00 00 80     ..p8.A. ........
    1bbc:	00 00 80 14 08 22 04 20 00 14 00 00 00 00 00 80     .....". ........
    1bcc:	00 01 00 44 08 14 02 20 00 24 00 00 04 00 00 80     ...D... .$......
    1bdc:	00 01 00 42 08 18 01 20 00 44 00 00 04 00 00 00     ...B... .D......
    1bec:	00 02 00 22 08 08 00 a0 00 84 00 00 04 00 00 40     ..."...........@
    1bfc:	00 01 00 11 08 04 00 40 01 04 3e 00 04 00 00 40     .......@..>....@
    1c0c:	00 01 00 10 90 04 00 60 02 05 c1 80 04 00 00 40     .......`.......@
    1c1c:	00 00 c0 30 60 02 00 10 04 06 00 40 04 00 00 40     ...0`......@...@
    1c2c:	00 00 20 80 60 01 00 88 08 18 00 40 04 00 00 40     .. .`......@...@
    1c3c:	00 00 18 80 30 00 81 00 10 30 00 20 04 02 00 40     ....0....0. ...@
    1c4c:	00 00 04 80 18 00 41 02 20 50 00 20 04 03 00 40     ......A. P. ...@
    1c5c:	00 00 03 80 04 00 36 01 40 88 00 20 04 05 80 40     ......6.@.. ...@
    1c6c:	00 00 01 80 02 00 08 00 c1 08 00 20 04 04 80 40     ........... ...@
    1c7c:	00 00 00 40 01 00 00 01 21 08 00 20 04 08 40 00     ...@....!.. ..@.
    1c8c:	00 00 00 60 00 00 00 02 12 10 00 20 04 08 20 80     ...`....... .. .
    1c9c:	00 00 00 20 00 00 00 00 08 10 00 40 08 08 10 80     ... .......@....
    1cac:	00 00 00 10 00 00 00 08 04 10 00 40 08 10 10 80     ...........@....
	...
    1ccc:	00 00 00 3c 40 00 00 20 01 1e 00 80 10 20 04 00     ...<@.. ..... ..
    1cdc:	00 00 00 c4 40 00 00 40 00 80 c1 00 10 40 05 00     ....@..@.....@..
    1cec:	00 00 03 02 00 00 00 80 00 40 42 00 20 40 03 00     .........@B. @..
    1cfc:	00 00 04 1e 80 00 01 00 00 20 4c 00 20 80 02 00     ......... L. ...
    1d0c:	00 00 18 61 80 00 02 00 00 10 30 00 41 00 00 00     ...a......0.A...
    1d1c:	00 00 21 81 00 00 04 00 00 08 c0 00 83 00 00 00     ..!.............
    1d2c:	00 00 42 01 00 00 08 00 00 0e f0 03 06 00 00 00     ..B.............
    1d3c:	00 00 84 01 00 60 10 00 00 02 8e 0c 0c 00 00 00     .....`..........
    1d4c:	00 01 08 01 00 9c 20 00 00 01 00 30 10 00 00 00     ...... ....0....
    1d5c:	00 01 10 01 02 fa 40 00 00 00 e0 60 60 00 00 00     ......@....``...
    1d6c:	00 02 20 03 05 ca 80 00 00 00 5c 63 80 00 00 00     .. .......\c....
    1d7c:	00 02 20 06 c6 0b 00 00 00 00 21 fc 00 00 00 00     .. .......!.....
    1d8c:	00 04 40 08 2c 0a 00 00 00 00 90 00 00 00 00 00     ..@.,...........
    1d9c:	00 04 40 10 1c 06 00 00 00 00 88 00 00 00 00 00     ..@.............
    1dac:	00 04 40 20 08 0a 00 00 00 00 84 00 00 00 00 00     ..@ ............
    1dbc:	00 04 40 20 08 12 00 00 00 00 82 00 00 00 00 00     ..@ ............
    1dcc:	00 02 20 40 08 22 00 00 00 00 81 00 00 00 00 00     .. @."..........
    1ddc:	00 02 1c 40 18 42 00 00 00 00 80 80 00 00 00 00     ...@.B..........
    1dec:	00 01 01 80 18 82 00 00 00 00 80 40 00 00 00 00     ...........@....
    1dfc:	00 00 80 80 19 02 00 00 00 01 80 20 00 00 00 00     ........... ....
    1e0c:	00 00 60 80 1a 02 00 00 00 01 40 10 00 00 00 00     ..`.......@.....
    1e1c:	00 00 1c 80 14 02 00 00 00 01 40 08 00 00 00 00     ..........@.....
    1e2c:	00 00 03 80 18 02 00 00 00 00 40 04 00 00 00 00     ..........@.....
    1e3c:	00 00 00 80 18 02 00 00 00 02 40 02 00 00 00 00     ..........@.....
    1e4c:	00 00 00 80 28 02 00 00 00 00 40 01 00 00 00 00     ....(.....@.....
    1e5c:	00 00 00 80 c8 02 00 00 00 00 40 00 80 00 00 00     ..........@.....
    1e6c:	00 00 00 41 08 22 00 00 00 00 40 00 40 00 00 00     ...A."....@.@...
    1e7c:	00 00 00 42 08 52 00 00 00 00 40 00 20 00 00 00     ...B.R....@. ...
    1e8c:	00 00 00 44 0c 4a 00 00 00 00 40 00 10 00 00 00     ...D.J....@.....
    1e9c:	00 00 00 28 0c 4a 00 00 00 00 40 00 08 00 00 00     ...(.J....@.....
    1eac:	00 00 00 30 0c 4a 00 00 00 10 40 00 04 00 00 00     ...0.J....@.....
    1ebc:	00 00 00 30 04 48 00 00 00 20 40 00 02 00 00 00     ...0.H... @.....
    1ecc:	00 00 00 50 02 29 00 00 00 40 40 00 01 00 00 00     ...P.)...@@.....
    1edc:	00 00 00 88 02 29 00 00 00 80 40 00 00 80 00 00     .....)....@.....
    1eec:	00 00 01 04 00 19 00 00 03 00 80 00 00 40 00 00     .............@..
    1efc:	00 00 02 02 03 01 00 00 04 00 80 00 00 30 00 00     .............0..
    1f0c:	00 00 04 01 03 01 00 00 18 00 80 00 00 08 00 00     ................
    1f1c:	00 00 08 00 c1 81 00 00 60 01 00 00 00 04 00 00     ........`.......
    1f2c:	00 00 10 00 31 81 00 01 80 01 00 00 00 02 00 00     ....1...........
    1f3c:	00 00 20 00 0f c1 00 18 00 02 00 00 00 01 00 00     .. .............
    1f4c:	00 00 40 00 00 c1 7f c0 00 02 00 00 00 00 80 00     ..@.............
    1f5c:	00 00 80 00 00 61 01 00 00 04 00 00 00 00 40 00     .....a........@.
    1f6c:	00 01 00 00 00 32 01 80 00 08 00 00 00 00 20 00     .....2........ .
    1f7c:	00 02 00 00 00 00 01 40 00 18 00 00 00 00 10 00     .......@........
    1f8c:	00 04 00 00 00 00 01 22 00 30 00 00 00 00 08 00     .......".0......
    1f9c:	00 08 00 00 00 00 01 1b 00 60 00 00 00 00 04 00     .........`......
    1fac:	00 10 00 00 00 00 01 00 81 80 00 00 00 00 02 00     ................
    1fbc:	00 20 00 00 00 00 01 00 7e 00 00 00 00 00 01 00     . ......~.......
    1fcc:	00 40 00 00 00 00 01 00 60 00 00 00 00 00 00 80     .@......`.......
    1fdc:	00 80 00 00 00 00 01 00 10 00 00 00 00 00 00 40     ...............@
    1fec:	01 00 00 00 00 00 00 00 88 00 00 00 00 00 00 20     ............... 
    1ffc:	02 00 00 00 00 00 00 80 24 00 00 00 00 00 00 10     ........$.......
    200c:	04 00 00 00 00 00 00 82 14 00 00 00 00 00 00 08     ................
    201c:	08 00 00 00 00 00 00 81 18 00 00 00 00 00 00 04     ................
    202c:	10 00 00 00 00 00 00 41 30 00 00 00 00 00 00 02     .......A0.......
    203c:	00 00 00 00 00 00 00 23 c0 00 00 00 00 00 00 00     .......#........
	...

0000208c <__ctors_end>:
    208c:	11 24       	eor	r1, r1
    208e:	1f be       	out	0x3f, r1	; 63
    2090:	cf ef       	ldi	r28, 0xFF	; 255
    2092:	d0 e1       	ldi	r29, 0x10	; 16
    2094:	de bf       	out	0x3e, r29	; 62
    2096:	cd bf       	out	0x3d, r28	; 61

00002098 <__do_copy_data>:
    2098:	11 e0       	ldi	r17, 0x01	; 1
    209a:	a0 e0       	ldi	r26, 0x00	; 0
    209c:	b1 e0       	ldi	r27, 0x01	; 1
    209e:	e8 e5       	ldi	r30, 0x58	; 88
    20a0:	f6 e2       	ldi	r31, 0x26	; 38
    20a2:	00 e0       	ldi	r16, 0x00	; 0
    20a4:	0b bf       	out	0x3b, r16	; 59
    20a6:	02 c0       	rjmp	.+4      	; 0x20ac <__do_copy_data+0x14>
    20a8:	07 90       	elpm	r0, Z+
    20aa:	0d 92       	st	X+, r0
    20ac:	ae 32       	cpi	r26, 0x2E	; 46
    20ae:	b1 07       	cpc	r27, r17
    20b0:	d9 f7       	brne	.-10     	; 0x20a8 <__do_copy_data+0x10>
    20b2:	0e 94 27 11 	call	0x224e	; 0x224e <main>
    20b6:	0c 94 2a 13 	jmp	0x2654	; 0x2654 <_exit>

000020ba <__bad_interrupt>:
    20ba:	0c 94 00 00 	jmp	0	; 0x0 <__vectors>

000020be <__vector_5>:
    20be:	1f 92       	push	r1
    20c0:	0f 92       	push	r0
    20c2:	0f b6       	in	r0, 0x3f	; 63
    20c4:	0f 92       	push	r0
    20c6:	0b b6       	in	r0, 0x3b	; 59
    20c8:	0f 92       	push	r0
    20ca:	11 24       	eor	r1, r1
    20cc:	0f 93       	push	r16
    20ce:	2f 93       	push	r18
    20d0:	3f 93       	push	r19
    20d2:	4f 93       	push	r20
    20d4:	5f 93       	push	r21
    20d6:	6f 93       	push	r22
    20d8:	7f 93       	push	r23
    20da:	8f 93       	push	r24
    20dc:	9f 93       	push	r25
    20de:	af 93       	push	r26
    20e0:	bf 93       	push	r27
    20e2:	ef 93       	push	r30
    20e4:	ff 93       	push	r31
    20e6:	0e 94 8e 12 	call	0x251c	; 0x251c <GLCD_ClearText>
    20ea:	8c e8       	ldi	r24, 0x8C	; 140
    20ec:	98 e0       	ldi	r25, 0x08	; 8
    20ee:	60 e0       	ldi	r22, 0x00	; 0
    20f0:	40 e0       	ldi	r20, 0x00	; 0
    20f2:	20 e8       	ldi	r18, 0x80	; 128
    20f4:	00 e8       	ldi	r16, 0x80	; 128
    20f6:	0e 94 b2 12 	call	0x2564	; 0x2564 <GLCD_Bitmap>
    20fa:	ff 91       	pop	r31
    20fc:	ef 91       	pop	r30
    20fe:	bf 91       	pop	r27
    2100:	af 91       	pop	r26
    2102:	9f 91       	pop	r25
    2104:	8f 91       	pop	r24
    2106:	7f 91       	pop	r23
    2108:	6f 91       	pop	r22
    210a:	5f 91       	pop	r21
    210c:	4f 91       	pop	r20
    210e:	3f 91       	pop	r19
    2110:	2f 91       	pop	r18
    2112:	0f 91       	pop	r16
    2114:	0f 90       	pop	r0
    2116:	0b be       	out	0x3b, r0	; 59
    2118:	0f 90       	pop	r0
    211a:	0f be       	out	0x3f, r0	; 63
    211c:	0f 90       	pop	r0
    211e:	1f 90       	pop	r1
    2120:	18 95       	reti

00002122 <__vector_6>:
    2122:	1f 92       	push	r1
    2124:	0f 92       	push	r0
    2126:	0f b6       	in	r0, 0x3f	; 63
    2128:	0f 92       	push	r0
    212a:	0b b6       	in	r0, 0x3b	; 59
    212c:	0f 92       	push	r0
    212e:	11 24       	eor	r1, r1
    2130:	0f 93       	push	r16
    2132:	2f 93       	push	r18
    2134:	3f 93       	push	r19
    2136:	4f 93       	push	r20
    2138:	5f 93       	push	r21
    213a:	6f 93       	push	r22
    213c:	7f 93       	push	r23
    213e:	8f 93       	push	r24
    2140:	9f 93       	push	r25
    2142:	af 93       	push	r26
    2144:	bf 93       	push	r27
    2146:	ef 93       	push	r30
    2148:	ff 93       	push	r31
    214a:	0e 94 8e 12 	call	0x251c	; 0x251c <GLCD_ClearText>
    214e:	8c e8       	ldi	r24, 0x8C	; 140
    2150:	90 e0       	ldi	r25, 0x00	; 0
    2152:	60 e0       	ldi	r22, 0x00	; 0
    2154:	40 e0       	ldi	r20, 0x00	; 0
    2156:	20 e8       	ldi	r18, 0x80	; 128
    2158:	00 e8       	ldi	r16, 0x80	; 128
    215a:	0e 94 b2 12 	call	0x2564	; 0x2564 <GLCD_Bitmap>
    215e:	ff 91       	pop	r31
    2160:	ef 91       	pop	r30
    2162:	bf 91       	pop	r27
    2164:	af 91       	pop	r26
    2166:	9f 91       	pop	r25
    2168:	8f 91       	pop	r24
    216a:	7f 91       	pop	r23
    216c:	6f 91       	pop	r22
    216e:	5f 91       	pop	r21
    2170:	4f 91       	pop	r20
    2172:	3f 91       	pop	r19
    2174:	2f 91       	pop	r18
    2176:	0f 91       	pop	r16
    2178:	0f 90       	pop	r0
    217a:	0b be       	out	0x3b, r0	; 59
    217c:	0f 90       	pop	r0
    217e:	0f be       	out	0x3f, r0	; 63
    2180:	0f 90       	pop	r0
    2182:	1f 90       	pop	r1
    2184:	18 95       	reti

00002186 <__vector_7>:
    2186:	1f 92       	push	r1
    2188:	0f 92       	push	r0
    218a:	0f b6       	in	r0, 0x3f	; 63
    218c:	0f 92       	push	r0
    218e:	0b b6       	in	r0, 0x3b	; 59
    2190:	0f 92       	push	r0
    2192:	11 24       	eor	r1, r1
    2194:	0f 93       	push	r16
    2196:	2f 93       	push	r18
    2198:	3f 93       	push	r19
    219a:	4f 93       	push	r20
    219c:	5f 93       	push	r21
    219e:	6f 93       	push	r22
    21a0:	7f 93       	push	r23
    21a2:	8f 93       	push	r24
    21a4:	9f 93       	push	r25
    21a6:	af 93       	push	r26
    21a8:	bf 93       	push	r27
    21aa:	ef 93       	push	r30
    21ac:	ff 93       	push	r31
    21ae:	0e 94 8e 12 	call	0x251c	; 0x251c <GLCD_ClearText>
    21b2:	8c e8       	ldi	r24, 0x8C	; 140
    21b4:	90 e1       	ldi	r25, 0x10	; 16
    21b6:	60 e0       	ldi	r22, 0x00	; 0
    21b8:	40 e0       	ldi	r20, 0x00	; 0
    21ba:	20 e8       	ldi	r18, 0x80	; 128
    21bc:	00 e8       	ldi	r16, 0x80	; 128
    21be:	0e 94 b2 12 	call	0x2564	; 0x2564 <GLCD_Bitmap>
    21c2:	ff 91       	pop	r31
    21c4:	ef 91       	pop	r30
    21c6:	bf 91       	pop	r27
    21c8:	af 91       	pop	r26
    21ca:	9f 91       	pop	r25
    21cc:	8f 91       	pop	r24
    21ce:	7f 91       	pop	r23
    21d0:	6f 91       	pop	r22
    21d2:	5f 91       	pop	r21
    21d4:	4f 91       	pop	r20
    21d6:	3f 91       	pop	r19
    21d8:	2f 91       	pop	r18
    21da:	0f 91       	pop	r16
    21dc:	0f 90       	pop	r0
    21de:	0b be       	out	0x3b, r0	; 59
    21e0:	0f 90       	pop	r0
    21e2:	0f be       	out	0x3f, r0	; 63
    21e4:	0f 90       	pop	r0
    21e6:	1f 90       	pop	r1
    21e8:	18 95       	reti

000021ea <__vector_8>:
    21ea:	1f 92       	push	r1
    21ec:	0f 92       	push	r0
    21ee:	0f b6       	in	r0, 0x3f	; 63
    21f0:	0f 92       	push	r0
    21f2:	0b b6       	in	r0, 0x3b	; 59
    21f4:	0f 92       	push	r0
    21f6:	11 24       	eor	r1, r1
    21f8:	0f 93       	push	r16
    21fa:	2f 93       	push	r18
    21fc:	3f 93       	push	r19
    21fe:	4f 93       	push	r20
    2200:	5f 93       	push	r21
    2202:	6f 93       	push	r22
    2204:	7f 93       	push	r23
    2206:	8f 93       	push	r24
    2208:	9f 93       	push	r25
    220a:	af 93       	push	r26
    220c:	bf 93       	push	r27
    220e:	ef 93       	push	r30
    2210:	ff 93       	push	r31
    2212:	0e 94 8e 12 	call	0x251c	; 0x251c <GLCD_ClearText>
    2216:	8c e8       	ldi	r24, 0x8C	; 140
    2218:	98 e1       	ldi	r25, 0x18	; 24
    221a:	60 e0       	ldi	r22, 0x00	; 0
    221c:	40 e0       	ldi	r20, 0x00	; 0
    221e:	20 e8       	ldi	r18, 0x80	; 128
    2220:	00 e8       	ldi	r16, 0x80	; 128
    2222:	0e 94 b2 12 	call	0x2564	; 0x2564 <GLCD_Bitmap>
    2226:	ff 91       	pop	r31
    2228:	ef 91       	pop	r30
    222a:	bf 91       	pop	r27
    222c:	af 91       	pop	r26
    222e:	9f 91       	pop	r25
    2230:	8f 91       	pop	r24
    2232:	7f 91       	pop	r23
    2234:	6f 91       	pop	r22
    2236:	5f 91       	pop	r21
    2238:	4f 91       	pop	r20
    223a:	3f 91       	pop	r19
    223c:	2f 91       	pop	r18
    223e:	0f 91       	pop	r16
    2240:	0f 90       	pop	r0
    2242:	0b be       	out	0x3b, r0	; 59
    2244:	0f 90       	pop	r0
    2246:	0f be       	out	0x3f, r0	; 63
    2248:	0f 90       	pop	r0
    224a:	1f 90       	pop	r1
    224c:	18 95       	reti

0000224e <main>:
    224e:	0f 93       	push	r16
    2250:	1f 93       	push	r17
    2252:	84 b3       	in	r24, 0x14	; 20
    2254:	8f ef       	ldi	r24, 0xFF	; 255
    2256:	84 bb       	out	0x14, r24	; 20
    2258:	8a b7       	in	r24, 0x3a	; 58
    225a:	82 60       	ori	r24, 0x02	; 2
    225c:	8a bf       	out	0x3a, r24	; 58
    225e:	8a b7       	in	r24, 0x3a	; 58
    2260:	8e 7f       	andi	r24, 0xFE	; 254
    2262:	8a bf       	out	0x3a, r24	; 58
    2264:	8a b7       	in	r24, 0x3a	; 58
    2266:	88 60       	ori	r24, 0x08	; 8
    2268:	8a bf       	out	0x3a, r24	; 58
    226a:	8a b7       	in	r24, 0x3a	; 58
    226c:	8b 7f       	andi	r24, 0xFB	; 251
    226e:	8a bf       	out	0x3a, r24	; 58
    2270:	8a b7       	in	r24, 0x3a	; 58
    2272:	80 62       	ori	r24, 0x20	; 32
    2274:	8a bf       	out	0x3a, r24	; 58
    2276:	8a b7       	in	r24, 0x3a	; 58
    2278:	8f 7e       	andi	r24, 0xEF	; 239
    227a:	8a bf       	out	0x3a, r24	; 58
    227c:	8a b7       	in	r24, 0x3a	; 58
    227e:	80 68       	ori	r24, 0x80	; 128
    2280:	8a bf       	out	0x3a, r24	; 58
    2282:	8a b7       	in	r24, 0x3a	; 58
    2284:	8f 7b       	andi	r24, 0xBF	; 191
    2286:	8a bf       	out	0x3a, r24	; 58
    2288:	89 b7       	in	r24, 0x39	; 57
    228a:	80 6f       	ori	r24, 0xF0	; 240
    228c:	89 bf       	out	0x39, r24	; 57
    228e:	78 94       	sei
    2290:	0e 94 e8 12 	call	0x25d0	; 0x25d0 <GLCD_Initalize>
    2294:	0e 94 8e 12 	call	0x251c	; 0x251c <GLCD_ClearText>
    2298:	0e 94 68 12 	call	0x24d0	; 0x24d0 <GLCD_ClearGraphic>
    229c:	80 e0       	ldi	r24, 0x00	; 0
    229e:	60 e0       	ldi	r22, 0x00	; 0
    22a0:	0e 94 d9 11 	call	0x23b2	; 0x23b2 <GLCD_TextGoTo>
    22a4:	80 e0       	ldi	r24, 0x00	; 0
    22a6:	91 e0       	ldi	r25, 0x01	; 1
    22a8:	0e 94 5b 12 	call	0x24b6	; 0x24b6 <GLCD_WriteString>
    22ac:	80 e0       	ldi	r24, 0x00	; 0
    22ae:	60 e0       	ldi	r22, 0x00	; 0
    22b0:	0e 94 a1 12 	call	0x2542	; 0x2542 <GLCD_GraphicGoTo>
    22b4:	0c e3       	ldi	r16, 0x3C	; 60
    22b6:	0b c0       	rjmp	.+22     	; 0x22ce <main+0x80>
    22b8:	80 2f       	mov	r24, r16
    22ba:	61 2f       	mov	r22, r17
    22bc:	41 e0       	ldi	r20, 0x01	; 1
    22be:	0e 94 ec 11 	call	0x23d8	; 0x23d8 <GLCD_SetPixel>
    22c2:	1f 5f       	subi	r17, 0xFF	; 255
    22c4:	15 34       	cpi	r17, 0x45	; 69
    22c6:	c1 f7       	brne	.-16     	; 0x22b8 <main+0x6a>
    22c8:	0f 5f       	subi	r16, 0xFF	; 255
    22ca:	05 34       	cpi	r16, 0x45	; 69
    22cc:	11 f0       	breq	.+4      	; 0x22d2 <main+0x84>
    22ce:	1c e3       	ldi	r17, 0x3C	; 60
    22d0:	f3 cf       	rjmp	.-26     	; 0x22b8 <main+0x6a>
    22d2:	ff cf       	rjmp	.-2      	; 0x22d2 <main+0x84>

000022d4 <delay>:
    22d4:	df 93       	push	r29
    22d6:	cf 93       	push	r28
    22d8:	0f 92       	push	r0
    22da:	cd b7       	in	r28, 0x3d	; 61
    22dc:	de b7       	in	r29, 0x3e	; 62
    22de:	19 82       	std	Y+1, r1	; 0x01
    22e0:	04 c0       	rjmp	.+8      	; 0x22ea <delay+0x16>
    22e2:	00 00       	nop
    22e4:	89 81       	ldd	r24, Y+1	; 0x01
    22e6:	8f 5f       	subi	r24, 0xFF	; 255
    22e8:	89 83       	std	Y+1, r24	; 0x01
    22ea:	89 81       	ldd	r24, Y+1	; 0x01
    22ec:	88 30       	cpi	r24, 0x08	; 8
    22ee:	c8 f3       	brcs	.-14     	; 0x22e2 <delay+0xe>
    22f0:	0f 90       	pop	r0
    22f2:	cf 91       	pop	r28
    22f4:	df 91       	pop	r29
    22f6:	08 95       	ret

000022f8 <GLCD_InitalizeInterface>:
    22f8:	8f ef       	ldi	r24, 0xFF	; 255
    22fa:	84 bb       	out	0x14, r24	; 20
    22fc:	87 e7       	ldi	r24, 0x77	; 119
    22fe:	8a bb       	out	0x1a, r24	; 26
    2300:	8b b3       	in	r24, 0x1b	; 27
    2302:	87 67       	ori	r24, 0x77	; 119
    2304:	8b bb       	out	0x1b, r24	; 27
    2306:	08 95       	ret

00002308 <GLCD_ChceckStatus>:
    2308:	14 ba       	out	0x14, r1	; 20
    230a:	8b b3       	in	r24, 0x1b	; 27
    230c:	8f 7c       	andi	r24, 0xCF	; 207
    230e:	8b bb       	out	0x1b, r24	; 27
    2310:	0e 94 6a 11 	call	0x22d4	; 0x22d4 <delay>
    2314:	83 b3       	in	r24, 0x13	; 19
    2316:	9f ef       	ldi	r25, 0xFF	; 255
    2318:	94 bb       	out	0x14, r25	; 20
    231a:	9b b3       	in	r25, 0x1b	; 27
    231c:	90 63       	ori	r25, 0x30	; 48
    231e:	9b bb       	out	0x1b, r25	; 27
    2320:	08 95       	ret

00002322 <GLCD_WriteCommand>:
    2322:	1f 93       	push	r17
    2324:	18 2f       	mov	r17, r24
    2326:	0e 94 84 11 	call	0x2308	; 0x2308 <GLCD_ChceckStatus>
    232a:	90 e0       	ldi	r25, 0x00	; 0
    232c:	83 70       	andi	r24, 0x03	; 3
    232e:	90 70       	andi	r25, 0x00	; 0
    2330:	89 2b       	or	r24, r25
    2332:	c9 f3       	breq	.-14     	; 0x2326 <GLCD_WriteCommand+0x4>
    2334:	15 bb       	out	0x15, r17	; 21
    2336:	8b b3       	in	r24, 0x1b	; 27
    2338:	8f 7a       	andi	r24, 0xAF	; 175
    233a:	8b bb       	out	0x1b, r24	; 27
    233c:	0e 94 6a 11 	call	0x22d4	; 0x22d4 <delay>
    2340:	8b b3       	in	r24, 0x1b	; 27
    2342:	80 65       	ori	r24, 0x50	; 80
    2344:	8b bb       	out	0x1b, r24	; 27
    2346:	1f 91       	pop	r17
    2348:	08 95       	ret

0000234a <GLCD_WriteData>:
    234a:	1f 93       	push	r17
    234c:	18 2f       	mov	r17, r24
    234e:	0e 94 84 11 	call	0x2308	; 0x2308 <GLCD_ChceckStatus>
    2352:	90 e0       	ldi	r25, 0x00	; 0
    2354:	83 70       	andi	r24, 0x03	; 3
    2356:	90 70       	andi	r25, 0x00	; 0
    2358:	89 2b       	or	r24, r25
    235a:	c9 f3       	breq	.-14     	; 0x234e <GLCD_WriteData+0x4>
    235c:	15 bb       	out	0x15, r17	; 21
    235e:	8b b3       	in	r24, 0x1b	; 27
    2360:	8b 7a       	andi	r24, 0xAB	; 171
    2362:	8b bb       	out	0x1b, r24	; 27
    2364:	0e 94 6a 11 	call	0x22d4	; 0x22d4 <delay>
    2368:	8b b3       	in	r24, 0x1b	; 27
    236a:	84 65       	ori	r24, 0x54	; 84
    236c:	8b bb       	out	0x1b, r24	; 27
    236e:	1f 91       	pop	r17
    2370:	08 95       	ret

00002372 <GLCD_ReadData>:
    2372:	0e 94 84 11 	call	0x2308	; 0x2308 <GLCD_ChceckStatus>
    2376:	90 e0       	ldi	r25, 0x00	; 0
    2378:	83 70       	andi	r24, 0x03	; 3
    237a:	90 70       	andi	r25, 0x00	; 0
    237c:	89 2b       	or	r24, r25
    237e:	c9 f3       	breq	.-14     	; 0x2372 <GLCD_ReadData>
    2380:	14 ba       	out	0x14, r1	; 20
    2382:	8b b3       	in	r24, 0x1b	; 27
    2384:	8b 7c       	andi	r24, 0xCB	; 203
    2386:	8b bb       	out	0x1b, r24	; 27
    2388:	0e 94 6a 11 	call	0x22d4	; 0x22d4 <delay>
    238c:	83 b3       	in	r24, 0x13	; 19
    238e:	9b b3       	in	r25, 0x1b	; 27
    2390:	94 63       	ori	r25, 0x34	; 52
    2392:	9b bb       	out	0x1b, r25	; 27
    2394:	9f ef       	ldi	r25, 0xFF	; 255
    2396:	94 bb       	out	0x14, r25	; 20
    2398:	08 95       	ret

0000239a <GLCD_SetAddressPointer>:
    239a:	1f 93       	push	r17
    239c:	19 2f       	mov	r17, r25
    239e:	0e 94 a5 11 	call	0x234a	; 0x234a <GLCD_WriteData>
    23a2:	81 2f       	mov	r24, r17
    23a4:	0e 94 a5 11 	call	0x234a	; 0x234a <GLCD_WriteData>
    23a8:	84 e2       	ldi	r24, 0x24	; 36
    23aa:	0e 94 91 11 	call	0x2322	; 0x2322 <GLCD_WriteCommand>
    23ae:	1f 91       	pop	r17
    23b0:	08 95       	ret

000023b2 <GLCD_TextGoTo>:
    23b2:	70 e0       	ldi	r23, 0x00	; 0
    23b4:	94 e0       	ldi	r25, 0x04	; 4
    23b6:	66 0f       	add	r22, r22
    23b8:	77 1f       	adc	r23, r23
    23ba:	9a 95       	dec	r25
    23bc:	e1 f7       	brne	.-8      	; 0x23b6 <GLCD_TextGoTo+0x4>
    23be:	9b 01       	movw	r18, r22
    23c0:	28 0f       	add	r18, r24
    23c2:	31 1d       	adc	r19, r1
    23c4:	c9 01       	movw	r24, r18
    23c6:	0e 94 cd 11 	call	0x239a	; 0x239a <GLCD_SetAddressPointer>
    23ca:	08 95       	ret

000023cc <GLCD_WriteDisplayData>:
    23cc:	0e 94 a5 11 	call	0x234a	; 0x234a <GLCD_WriteData>
    23d0:	80 ec       	ldi	r24, 0xC0	; 192
    23d2:	0e 94 91 11 	call	0x2322	; 0x2322 <GLCD_WriteCommand>
    23d6:	08 95       	ret

000023d8 <GLCD_SetPixel>:
    23d8:	0f 93       	push	r16
    23da:	1f 93       	push	r17
    23dc:	18 2f       	mov	r17, r24
    23de:	04 2f       	mov	r16, r20
    23e0:	86 95       	lsr	r24
    23e2:	86 95       	lsr	r24
    23e4:	86 95       	lsr	r24
    23e6:	90 e0       	ldi	r25, 0x00	; 0
    23e8:	80 50       	subi	r24, 0x00	; 0
    23ea:	9f 4f       	sbci	r25, 0xFF	; 255
    23ec:	70 e0       	ldi	r23, 0x00	; 0
    23ee:	24 e0       	ldi	r18, 0x04	; 4
    23f0:	66 0f       	add	r22, r22
    23f2:	77 1f       	adc	r23, r23
    23f4:	2a 95       	dec	r18
    23f6:	e1 f7       	brne	.-8      	; 0x23f0 <GLCD_SetPixel+0x18>
    23f8:	86 0f       	add	r24, r22
    23fa:	97 1f       	adc	r25, r23
    23fc:	0e 94 cd 11 	call	0x239a	; 0x239a <GLCD_SetAddressPointer>
    2400:	85 ec       	ldi	r24, 0xC5	; 197
    2402:	0e 94 91 11 	call	0x2322	; 0x2322 <GLCD_WriteCommand>
    2406:	0e 94 b9 11 	call	0x2372	; 0x2372 <GLCD_ReadData>
    240a:	48 2f       	mov	r20, r24
    240c:	21 2f       	mov	r18, r17
    240e:	30 e0       	ldi	r19, 0x00	; 0
    2410:	00 23       	and	r16, r16
    2412:	69 f0       	breq	.+26     	; 0x242e <GLCD_SetPixel+0x56>
    2414:	20 95       	com	r18
    2416:	30 95       	com	r19
    2418:	27 70       	andi	r18, 0x07	; 7
    241a:	30 70       	andi	r19, 0x00	; 0
    241c:	81 e0       	ldi	r24, 0x01	; 1
    241e:	90 e0       	ldi	r25, 0x00	; 0
    2420:	02 c0       	rjmp	.+4      	; 0x2426 <GLCD_SetPixel+0x4e>
    2422:	88 0f       	add	r24, r24
    2424:	99 1f       	adc	r25, r25
    2426:	2a 95       	dec	r18
    2428:	e2 f7       	brpl	.-8      	; 0x2422 <GLCD_SetPixel+0x4a>
    242a:	84 2b       	or	r24, r20
    242c:	0d c0       	rjmp	.+26     	; 0x2448 <GLCD_SetPixel+0x70>
    242e:	20 95       	com	r18
    2430:	30 95       	com	r19
    2432:	27 70       	andi	r18, 0x07	; 7
    2434:	30 70       	andi	r19, 0x00	; 0
    2436:	81 e0       	ldi	r24, 0x01	; 1
    2438:	90 e0       	ldi	r25, 0x00	; 0
    243a:	02 c0       	rjmp	.+4      	; 0x2440 <GLCD_SetPixel+0x68>
    243c:	88 0f       	add	r24, r24
    243e:	99 1f       	adc	r25, r25
    2440:	2a 95       	dec	r18
    2442:	e2 f7       	brpl	.-8      	; 0x243c <GLCD_SetPixel+0x64>
    2444:	80 95       	com	r24
    2446:	84 23       	and	r24, r20
    2448:	0e 94 e6 11 	call	0x23cc	; 0x23cc <GLCD_WriteDisplayData>
    244c:	1f 91       	pop	r17
    244e:	0f 91       	pop	r16
    2450:	08 95       	ret

00002452 <GLCD_DefineCharacter>:
    2452:	0f 93       	push	r16
    2454:	1f 93       	push	r17
    2456:	cf 93       	push	r28
    2458:	df 93       	push	r29
    245a:	8b 01       	movw	r16, r22
    245c:	90 e0       	ldi	r25, 0x00	; 0
    245e:	80 50       	subi	r24, 0x00	; 0
    2460:	9e 4f       	sbci	r25, 0xFE	; 254
    2462:	33 e0       	ldi	r19, 0x03	; 3
    2464:	88 0f       	add	r24, r24
    2466:	99 1f       	adc	r25, r25
    2468:	3a 95       	dec	r19
    246a:	e1 f7       	brne	.-8      	; 0x2464 <GLCD_DefineCharacter+0x12>
    246c:	0e 94 cd 11 	call	0x239a	; 0x239a <GLCD_SetAddressPointer>
    2470:	c0 e0       	ldi	r28, 0x00	; 0
    2472:	d0 e0       	ldi	r29, 0x00	; 0
    2474:	f8 01       	movw	r30, r16
    2476:	ec 0f       	add	r30, r28
    2478:	fd 1f       	adc	r31, r29
    247a:	80 81       	ld	r24, Z
    247c:	0e 94 e6 11 	call	0x23cc	; 0x23cc <GLCD_WriteDisplayData>
    2480:	21 96       	adiw	r28, 0x01	; 1
    2482:	c8 30       	cpi	r28, 0x08	; 8
    2484:	d1 05       	cpc	r29, r1
    2486:	b1 f7       	brne	.-20     	; 0x2474 <GLCD_DefineCharacter+0x22>
    2488:	df 91       	pop	r29
    248a:	cf 91       	pop	r28
    248c:	1f 91       	pop	r17
    248e:	0f 91       	pop	r16
    2490:	08 95       	ret

00002492 <GLCD_WriteChar>:
    2492:	80 52       	subi	r24, 0x20	; 32
    2494:	0e 94 e6 11 	call	0x23cc	; 0x23cc <GLCD_WriteDisplayData>
    2498:	08 95       	ret

0000249a <GLCD_WriteStringPgm>:
    249a:	cf 93       	push	r28
    249c:	df 93       	push	r29
    249e:	ec 01       	movw	r28, r24
    24a0:	02 c0       	rjmp	.+4      	; 0x24a6 <GLCD_WriteStringPgm+0xc>
    24a2:	0e 94 49 12 	call	0x2492	; 0x2492 <GLCD_WriteChar>
    24a6:	fe 01       	movw	r30, r28
    24a8:	21 96       	adiw	r28, 0x01	; 1
    24aa:	84 91       	lpm	r24, Z+
    24ac:	88 23       	and	r24, r24
    24ae:	c9 f7       	brne	.-14     	; 0x24a2 <GLCD_WriteStringPgm+0x8>
    24b0:	df 91       	pop	r29
    24b2:	cf 91       	pop	r28
    24b4:	08 95       	ret

000024b6 <GLCD_WriteString>:
    24b6:	cf 93       	push	r28
    24b8:	df 93       	push	r29
    24ba:	ec 01       	movw	r28, r24
    24bc:	03 c0       	rjmp	.+6      	; 0x24c4 <GLCD_WriteString+0xe>
    24be:	21 96       	adiw	r28, 0x01	; 1
    24c0:	0e 94 49 12 	call	0x2492	; 0x2492 <GLCD_WriteChar>
    24c4:	88 81       	ld	r24, Y
    24c6:	88 23       	and	r24, r24
    24c8:	d1 f7       	brne	.-12     	; 0x24be <GLCD_WriteString+0x8>
    24ca:	df 91       	pop	r29
    24cc:	cf 91       	pop	r28
    24ce:	08 95       	ret

000024d0 <GLCD_ClearGraphic>:
    24d0:	cf 93       	push	r28
    24d2:	df 93       	push	r29
    24d4:	80 e0       	ldi	r24, 0x00	; 0
    24d6:	91 e0       	ldi	r25, 0x01	; 1
    24d8:	0e 94 cd 11 	call	0x239a	; 0x239a <GLCD_SetAddressPointer>
    24dc:	c0 e0       	ldi	r28, 0x00	; 0
    24de:	d0 e0       	ldi	r29, 0x00	; 0
    24e0:	80 e0       	ldi	r24, 0x00	; 0
    24e2:	0e 94 e6 11 	call	0x23cc	; 0x23cc <GLCD_WriteDisplayData>
    24e6:	21 96       	adiw	r28, 0x01	; 1
    24e8:	88 e0       	ldi	r24, 0x08	; 8
    24ea:	c0 30       	cpi	r28, 0x00	; 0
    24ec:	d8 07       	cpc	r29, r24
    24ee:	c1 f7       	brne	.-16     	; 0x24e0 <GLCD_ClearGraphic+0x10>
    24f0:	df 91       	pop	r29
    24f2:	cf 91       	pop	r28
    24f4:	08 95       	ret

000024f6 <GLCD_ClearCG>:
    24f6:	cf 93       	push	r28
    24f8:	df 93       	push	r29
    24fa:	80 e0       	ldi	r24, 0x00	; 0
    24fc:	90 e1       	ldi	r25, 0x10	; 16
    24fe:	0e 94 cd 11 	call	0x239a	; 0x239a <GLCD_SetAddressPointer>
    2502:	c0 e0       	ldi	r28, 0x00	; 0
    2504:	d0 e0       	ldi	r29, 0x00	; 0
    2506:	80 e0       	ldi	r24, 0x00	; 0
    2508:	0e 94 e6 11 	call	0x23cc	; 0x23cc <GLCD_WriteDisplayData>
    250c:	21 96       	adiw	r28, 0x01	; 1
    250e:	88 e0       	ldi	r24, 0x08	; 8
    2510:	c0 30       	cpi	r28, 0x00	; 0
    2512:	d8 07       	cpc	r29, r24
    2514:	c1 f7       	brne	.-16     	; 0x2506 <GLCD_ClearCG+0x10>
    2516:	df 91       	pop	r29
    2518:	cf 91       	pop	r28
    251a:	08 95       	ret

0000251c <GLCD_ClearText>:
    251c:	cf 93       	push	r28
    251e:	df 93       	push	r29
    2520:	80 e0       	ldi	r24, 0x00	; 0
    2522:	90 e0       	ldi	r25, 0x00	; 0
    2524:	0e 94 cd 11 	call	0x239a	; 0x239a <GLCD_SetAddressPointer>
    2528:	c0 e0       	ldi	r28, 0x00	; 0
    252a:	d0 e0       	ldi	r29, 0x00	; 0
    252c:	80 e0       	ldi	r24, 0x00	; 0
    252e:	0e 94 e6 11 	call	0x23cc	; 0x23cc <GLCD_WriteDisplayData>
    2532:	21 96       	adiw	r28, 0x01	; 1
    2534:	81 e0       	ldi	r24, 0x01	; 1
    2536:	c0 30       	cpi	r28, 0x00	; 0
    2538:	d8 07       	cpc	r29, r24
    253a:	c1 f7       	brne	.-16     	; 0x252c <GLCD_ClearText+0x10>
    253c:	df 91       	pop	r29
    253e:	cf 91       	pop	r28
    2540:	08 95       	ret

00002542 <GLCD_GraphicGoTo>:
    2542:	86 95       	lsr	r24
    2544:	86 95       	lsr	r24
    2546:	86 95       	lsr	r24
    2548:	90 e0       	ldi	r25, 0x00	; 0
    254a:	80 50       	subi	r24, 0x00	; 0
    254c:	9f 4f       	sbci	r25, 0xFF	; 255
    254e:	70 e0       	ldi	r23, 0x00	; 0
    2550:	44 e0       	ldi	r20, 0x04	; 4
    2552:	66 0f       	add	r22, r22
    2554:	77 1f       	adc	r23, r23
    2556:	4a 95       	dec	r20
    2558:	e1 f7       	brne	.-8      	; 0x2552 <GLCD_GraphicGoTo+0x10>
    255a:	86 0f       	add	r24, r22
    255c:	97 1f       	adc	r25, r23
    255e:	0e 94 cd 11 	call	0x239a	; 0x239a <GLCD_SetAddressPointer>
    2562:	08 95       	ret

00002564 <GLCD_Bitmap>:
    2564:	af 92       	push	r10
    2566:	bf 92       	push	r11
    2568:	cf 92       	push	r12
    256a:	df 92       	push	r13
    256c:	ef 92       	push	r14
    256e:	ff 92       	push	r15
    2570:	0f 93       	push	r16
    2572:	1f 93       	push	r17
    2574:	cf 93       	push	r28
    2576:	df 93       	push	r29
    2578:	a6 2e       	mov	r10, r22
    257a:	b4 2e       	mov	r11, r20
    257c:	d2 2e       	mov	r13, r18
    257e:	c0 2e       	mov	r12, r16
    2580:	d6 94       	lsr	r13
    2582:	d6 94       	lsr	r13
    2584:	d6 94       	lsr	r13
    2586:	7c 01       	movw	r14, r24
    2588:	00 e0       	ldi	r16, 0x00	; 0
    258a:	15 c0       	rjmp	.+42     	; 0x25b6 <GLCD_Bitmap+0x52>
    258c:	60 2f       	mov	r22, r16
    258e:	6b 0d       	add	r22, r11
    2590:	8a 2d       	mov	r24, r10
    2592:	0e 94 a1 12 	call	0x2542	; 0x2542 <GLCD_GraphicGoTo>
    2596:	e7 01       	movw	r28, r14
    2598:	10 e0       	ldi	r17, 0x00	; 0
    259a:	06 c0       	rjmp	.+12     	; 0x25a8 <GLCD_Bitmap+0x44>
    259c:	fe 01       	movw	r30, r28
    259e:	84 91       	lpm	r24, Z+
    25a0:	0e 94 e6 11 	call	0x23cc	; 0x23cc <GLCD_WriteDisplayData>
    25a4:	1f 5f       	subi	r17, 0xFF	; 255
    25a6:	21 96       	adiw	r28, 0x01	; 1
    25a8:	1d 15       	cp	r17, r13
    25aa:	c0 f3       	brcs	.-16     	; 0x259c <GLCD_Bitmap+0x38>
    25ac:	0f 5f       	subi	r16, 0xFF	; 255
    25ae:	80 e1       	ldi	r24, 0x10	; 16
    25b0:	90 e0       	ldi	r25, 0x00	; 0
    25b2:	e8 0e       	add	r14, r24
    25b4:	f9 1e       	adc	r15, r25
    25b6:	0c 15       	cp	r16, r12
    25b8:	48 f3       	brcs	.-46     	; 0x258c <GLCD_Bitmap+0x28>
    25ba:	df 91       	pop	r29
    25bc:	cf 91       	pop	r28
    25be:	1f 91       	pop	r17
    25c0:	0f 91       	pop	r16
    25c2:	ff 90       	pop	r15
    25c4:	ef 90       	pop	r14
    25c6:	df 90       	pop	r13
    25c8:	cf 90       	pop	r12
    25ca:	bf 90       	pop	r11
    25cc:	af 90       	pop	r10
    25ce:	08 95       	ret

000025d0 <GLCD_Initalize>:
    25d0:	8f ef       	ldi	r24, 0xFF	; 255
    25d2:	84 bb       	out	0x14, r24	; 20
    25d4:	87 e7       	ldi	r24, 0x77	; 119
    25d6:	8a bb       	out	0x1a, r24	; 26
    25d8:	8b b3       	in	r24, 0x1b	; 27
    25da:	87 67       	ori	r24, 0x77	; 119
    25dc:	8b bb       	out	0x1b, r24	; 27
    25de:	d9 98       	cbi	0x1b, 1	; 27
    25e0:	80 ed       	ldi	r24, 0xD0	; 208
    25e2:	97 e0       	ldi	r25, 0x07	; 7
    25e4:	01 97       	sbiw	r24, 0x01	; 1
    25e6:	f1 f7       	brne	.-4      	; 0x25e4 <GLCD_Initalize+0x14>
    25e8:	d9 9a       	sbi	0x1b, 1	; 27
    25ea:	d8 98       	cbi	0x1b, 0	; 27
    25ec:	80 e0       	ldi	r24, 0x00	; 0
    25ee:	0e 94 a5 11 	call	0x234a	; 0x234a <GLCD_WriteData>
    25f2:	81 e0       	ldi	r24, 0x01	; 1
    25f4:	0e 94 a5 11 	call	0x234a	; 0x234a <GLCD_WriteData>
    25f8:	82 e4       	ldi	r24, 0x42	; 66
    25fa:	0e 94 91 11 	call	0x2322	; 0x2322 <GLCD_WriteCommand>
    25fe:	80 e1       	ldi	r24, 0x10	; 16
    2600:	0e 94 a5 11 	call	0x234a	; 0x234a <GLCD_WriteData>
    2604:	80 e0       	ldi	r24, 0x00	; 0
    2606:	0e 94 a5 11 	call	0x234a	; 0x234a <GLCD_WriteData>
    260a:	83 e4       	ldi	r24, 0x43	; 67
    260c:	0e 94 91 11 	call	0x2322	; 0x2322 <GLCD_WriteCommand>
    2610:	80 e0       	ldi	r24, 0x00	; 0
    2612:	0e 94 a5 11 	call	0x234a	; 0x234a <GLCD_WriteData>
    2616:	80 e0       	ldi	r24, 0x00	; 0
    2618:	0e 94 a5 11 	call	0x234a	; 0x234a <GLCD_WriteData>
    261c:	80 e4       	ldi	r24, 0x40	; 64
    261e:	0e 94 91 11 	call	0x2322	; 0x2322 <GLCD_WriteCommand>
    2622:	80 e1       	ldi	r24, 0x10	; 16
    2624:	0e 94 a5 11 	call	0x234a	; 0x234a <GLCD_WriteData>
    2628:	80 e0       	ldi	r24, 0x00	; 0
    262a:	0e 94 a5 11 	call	0x234a	; 0x234a <GLCD_WriteData>
    262e:	81 e4       	ldi	r24, 0x41	; 65
    2630:	0e 94 91 11 	call	0x2322	; 0x2322 <GLCD_WriteCommand>
    2634:	82 e0       	ldi	r24, 0x02	; 2
    2636:	0e 94 a5 11 	call	0x234a	; 0x234a <GLCD_WriteData>
    263a:	80 e0       	ldi	r24, 0x00	; 0
    263c:	0e 94 a5 11 	call	0x234a	; 0x234a <GLCD_WriteData>
    2640:	82 e2       	ldi	r24, 0x22	; 34
    2642:	0e 94 91 11 	call	0x2322	; 0x2322 <GLCD_WriteCommand>
    2646:	8c e9       	ldi	r24, 0x9C	; 156
    2648:	0e 94 91 11 	call	0x2322	; 0x2322 <GLCD_WriteCommand>
    264c:	80 e8       	ldi	r24, 0x80	; 128
    264e:	0e 94 91 11 	call	0x2322	; 0x2322 <GLCD_WriteCommand>
    2652:	08 95       	ret

00002654 <_exit>:
    2654:	f8 94       	cli

00002656 <__stop_program>:
    2656:	ff cf       	rjmp	.-2      	; 0x2656 <__stop_program>
